
mmap_test:     file format elf64-x86-64


Disassembly of section .init:

0000000000403000 <_init>:
  403000:	48 83 ec 08          	sub    $0x8,%rsp
  403004:	48 8b 05 cd 3f 02 00 	mov    0x23fcd(%rip),%rax        # 426fd8 <__gmon_start__>
  40300b:	48 85 c0             	test   %rax,%rax
  40300e:	74 05                	je     403015 <_init+0x15>
  403010:	e8 cb 04 00 00       	callq  4034e0 <__gmon_start__@plt>
  403015:	48 83 c4 08          	add    $0x8,%rsp
  403019:	c3                   	retq   

Disassembly of section .plt:

0000000000403020 <.plt>:
  403020:	ff 35 e2 3f 02 00    	pushq  0x23fe2(%rip)        # 427008 <_GLOBAL_OFFSET_TABLE_+0x8>
  403026:	ff 25 e4 3f 02 00    	jmpq   *0x23fe4(%rip)        # 427010 <_GLOBAL_OFFSET_TABLE_+0x10>
  40302c:	0f 1f 40 00          	nopl   0x0(%rax)

0000000000403030 <__printf_chk@plt>:
  403030:	ff 25 e2 3f 02 00    	jmpq   *0x23fe2(%rip)        # 427018 <__printf_chk@GLIBC_2.3.4>
  403036:	68 00 00 00 00       	pushq  $0x0
  40303b:	e9 e0 ff ff ff       	jmpq   403020 <.plt>

0000000000403040 <__errno_location@plt>:
  403040:	ff 25 da 3f 02 00    	jmpq   *0x23fda(%rip)        # 427020 <__errno_location@GLIBC_2.2.5>
  403046:	68 01 00 00 00       	pushq  $0x1
  40304b:	e9 d0 ff ff ff       	jmpq   403020 <.plt>

0000000000403050 <printf@plt>:
  403050:	ff 25 d2 3f 02 00    	jmpq   *0x23fd2(%rip)        # 427028 <printf@GLIBC_2.2.5>
  403056:	68 02 00 00 00       	pushq  $0x2
  40305b:	e9 c0 ff ff ff       	jmpq   403020 <.plt>

0000000000403060 <_ZNSt8ios_baseC2Ev@plt>:
  403060:	ff 25 ca 3f 02 00    	jmpq   *0x23fca(%rip)        # 427030 <_ZNSt8ios_baseC2Ev@GLIBCXX_3.4>
  403066:	68 03 00 00 00       	pushq  $0x3
  40306b:	e9 b0 ff ff ff       	jmpq   403020 <.plt>

0000000000403070 <_ZNSt7__cxx1112basic_stringIcSt11char_traitsIcESaIcEE9_M_appendEPKcm@plt>:
  403070:	ff 25 c2 3f 02 00    	jmpq   *0x23fc2(%rip)        # 427038 <_ZNSt7__cxx1112basic_stringIcSt11char_traitsIcESaIcEE9_M_appendEPKcm@GLIBCXX_3.4.21>
  403076:	68 04 00 00 00       	pushq  $0x4
  40307b:	e9 a0 ff ff ff       	jmpq   403020 <.plt>

0000000000403080 <_ZNSt8ios_baseD2Ev@plt>:
  403080:	ff 25 ba 3f 02 00    	jmpq   *0x23fba(%rip)        # 427040 <_ZNSt8ios_baseD2Ev@GLIBCXX_3.4>
  403086:	68 05 00 00 00       	pushq  $0x5
  40308b:	e9 90 ff ff ff       	jmpq   403020 <.plt>

0000000000403090 <strerror@plt>:
  403090:	ff 25 b2 3f 02 00    	jmpq   *0x23fb2(%rip)        # 427048 <strerror@GLIBC_2.2.5>
  403096:	68 06 00 00 00       	pushq  $0x6
  40309b:	e9 80 ff ff ff       	jmpq   403020 <.plt>

00000000004030a0 <_ZNSolsEPFRSt8ios_baseS0_E@plt>:
  4030a0:	ff 25 aa 3f 02 00    	jmpq   *0x23faa(%rip)        # 427050 <_ZNSolsEPFRSt8ios_baseS0_E@GLIBCXX_3.4>
  4030a6:	68 07 00 00 00       	pushq  $0x7
  4030ab:	e9 70 ff ff ff       	jmpq   403020 <.plt>

00000000004030b0 <write@plt>:
  4030b0:	ff 25 a2 3f 02 00    	jmpq   *0x23fa2(%rip)        # 427058 <write@GLIBC_2.2.5>
  4030b6:	68 08 00 00 00       	pushq  $0x8
  4030bb:	e9 60 ff ff ff       	jmpq   403020 <.plt>

00000000004030c0 <_ZSt17__throw_bad_allocv@plt>:
  4030c0:	ff 25 9a 3f 02 00    	jmpq   *0x23f9a(%rip)        # 427060 <_ZSt17__throw_bad_allocv@GLIBCXX_3.4>
  4030c6:	68 09 00 00 00       	pushq  $0x9
  4030cb:	e9 50 ff ff ff       	jmpq   403020 <.plt>

00000000004030d0 <strchr@plt>:
  4030d0:	ff 25 92 3f 02 00    	jmpq   *0x23f92(%rip)        # 427068 <strchr@GLIBC_2.2.5>
  4030d6:	68 0a 00 00 00       	pushq  $0xa
  4030db:	e9 40 ff ff ff       	jmpq   403020 <.plt>

00000000004030e0 <strlen@plt>:
  4030e0:	ff 25 8a 3f 02 00    	jmpq   *0x23f8a(%rip)        # 427070 <strlen@GLIBC_2.2.5>
  4030e6:	68 0b 00 00 00       	pushq  $0xb
  4030eb:	e9 30 ff ff ff       	jmpq   403020 <.plt>

00000000004030f0 <__strncat_chk@plt>:
  4030f0:	ff 25 82 3f 02 00    	jmpq   *0x23f82(%rip)        # 427078 <__strncat_chk@GLIBC_2.3.4>
  4030f6:	68 0c 00 00 00       	pushq  $0xc
  4030fb:	e9 20 ff ff ff       	jmpq   403020 <.plt>

0000000000403100 <getuid@plt>:
  403100:	ff 25 7a 3f 02 00    	jmpq   *0x23f7a(%rip)        # 427080 <getuid@GLIBC_2.2.5>
  403106:	68 0d 00 00 00       	pushq  $0xd
  40310b:	e9 10 ff ff ff       	jmpq   403020 <.plt>

0000000000403110 <catopen@plt>:
  403110:	ff 25 72 3f 02 00    	jmpq   *0x23f72(%rip)        # 427088 <catopen@GLIBC_2.2.5>
  403116:	68 0e 00 00 00       	pushq  $0xe
  40311b:	e9 00 ff ff ff       	jmpq   403020 <.plt>

0000000000403120 <strncpy@plt>:
  403120:	ff 25 6a 3f 02 00    	jmpq   *0x23f6a(%rip)        # 427090 <strncpy@GLIBC_2.2.5>
  403126:	68 0f 00 00 00       	pushq  $0xf
  40312b:	e9 f0 fe ff ff       	jmpq   403020 <.plt>

0000000000403130 <localtime_r@plt>:
  403130:	ff 25 62 3f 02 00    	jmpq   *0x23f62(%rip)        # 427098 <localtime_r@GLIBC_2.2.5>
  403136:	68 10 00 00 00       	pushq  $0x10
  40313b:	e9 e0 fe ff ff       	jmpq   403020 <.plt>

0000000000403140 <_ZSt20__throw_length_errorPKc@plt>:
  403140:	ff 25 5a 3f 02 00    	jmpq   *0x23f5a(%rip)        # 4270a0 <_ZSt20__throw_length_errorPKc@GLIBCXX_3.4>
  403146:	68 11 00 00 00       	pushq  $0x11
  40314b:	e9 d0 fe ff ff       	jmpq   403020 <.plt>

0000000000403150 <_ZNSt7__cxx1112basic_stringIcSt11char_traitsIcESaIcEE9_M_assignERKS4_@plt>:
  403150:	ff 25 52 3f 02 00    	jmpq   *0x23f52(%rip)        # 4270a8 <_ZNSt7__cxx1112basic_stringIcSt11char_traitsIcESaIcEE9_M_assignERKS4_@GLIBCXX_3.4.21>
  403156:	68 12 00 00 00       	pushq  $0x12
  40315b:	e9 c0 fe ff ff       	jmpq   403020 <.plt>

0000000000403160 <memset@plt>:
  403160:	ff 25 4a 3f 02 00    	jmpq   *0x23f4a(%rip)        # 4270b0 <memset@GLIBC_2.2.5>
  403166:	68 13 00 00 00       	pushq  $0x13
  40316b:	e9 b0 fe ff ff       	jmpq   403020 <.plt>

0000000000403170 <__assert_fail@plt>:
  403170:	ff 25 42 3f 02 00    	jmpq   *0x23f42(%rip)        # 4270b8 <__assert_fail@GLIBC_2.2.5>
  403176:	68 14 00 00 00       	pushq  $0x14
  40317b:	e9 a0 fe ff ff       	jmpq   403020 <.plt>

0000000000403180 <_ZSt19__throw_logic_errorPKc@plt>:
  403180:	ff 25 3a 3f 02 00    	jmpq   *0x23f3a(%rip)        # 4270c0 <_ZSt19__throw_logic_errorPKc@GLIBCXX_3.4>
  403186:	68 15 00 00 00       	pushq  $0x15
  40318b:	e9 90 fe ff ff       	jmpq   403020 <.plt>

0000000000403190 <sscanf@plt>:
  403190:	ff 25 32 3f 02 00    	jmpq   *0x23f32(%rip)        # 4270c8 <sscanf@GLIBC_2.2.5>
  403196:	68 16 00 00 00       	pushq  $0x16
  40319b:	e9 80 fe ff ff       	jmpq   403020 <.plt>

00000000004031a0 <MPI_Barrier@plt>:
  4031a0:	ff 25 2a 3f 02 00    	jmpq   *0x23f2a(%rip)        # 4270d0 <MPI_Barrier>
  4031a6:	68 17 00 00 00       	pushq  $0x17
  4031ab:	e9 70 fe ff ff       	jmpq   403020 <.plt>

00000000004031b0 <open@plt>:
  4031b0:	ff 25 22 3f 02 00    	jmpq   *0x23f22(%rip)        # 4270d8 <open@GLIBC_2.2.5>
  4031b6:	68 18 00 00 00       	pushq  $0x18
  4031bb:	e9 60 fe ff ff       	jmpq   403020 <.plt>

00000000004031c0 <MPI_Finalize@plt>:
  4031c0:	ff 25 1a 3f 02 00    	jmpq   *0x23f1a(%rip)        # 4270e0 <MPI_Finalize>
  4031c6:	68 19 00 00 00       	pushq  $0x19
  4031cb:	e9 50 fe ff ff       	jmpq   403020 <.plt>

00000000004031d0 <MPI_Gather@plt>:
  4031d0:	ff 25 12 3f 02 00    	jmpq   *0x23f12(%rip)        # 4270e8 <MPI_Gather>
  4031d6:	68 1a 00 00 00       	pushq  $0x1a
  4031db:	e9 40 fe ff ff       	jmpq   403020 <.plt>

00000000004031e0 <strftime@plt>:
  4031e0:	ff 25 0a 3f 02 00    	jmpq   *0x23f0a(%rip)        # 4270f0 <strftime@GLIBC_2.2.5>
  4031e6:	68 1b 00 00 00       	pushq  $0x1b
  4031eb:	e9 30 fe ff ff       	jmpq   403020 <.plt>

00000000004031f0 <memcpy@plt>:
  4031f0:	ff 25 02 3f 02 00    	jmpq   *0x23f02(%rip)        # 4270f8 <memcpy@GLIBC_2.14>
  4031f6:	68 1c 00 00 00       	pushq  $0x1c
  4031fb:	e9 20 fe ff ff       	jmpq   403020 <.plt>

0000000000403200 <_ZStlsIcSt11char_traitsIcESaIcEERSt13basic_ostreamIT_T0_ES7_RKNSt7__cxx1112basic_stringIS4_S5_T1_EE@plt>:
  403200:	ff 25 fa 3e 02 00    	jmpq   *0x23efa(%rip)        # 427100 <_ZStlsIcSt11char_traitsIcESaIcEERSt13basic_ostreamIT_T0_ES7_RKNSt7__cxx1112basic_stringIS4_S5_T1_EE@GLIBCXX_3.4.21>
  403206:	68 1d 00 00 00       	pushq  $0x1d
  40320b:	e9 10 fe ff ff       	jmpq   403020 <.plt>

0000000000403210 <isdigit@plt>:
  403210:	ff 25 f2 3e 02 00    	jmpq   *0x23ef2(%rip)        # 427108 <isdigit@GLIBC_2.2.5>
  403216:	68 1e 00 00 00       	pushq  $0x1e
  40321b:	e9 00 fe ff ff       	jmpq   403020 <.plt>

0000000000403220 <time@plt>:
  403220:	ff 25 ea 3e 02 00    	jmpq   *0x23eea(%rip)        # 427110 <time@GLIBC_2.2.5>
  403226:	68 1f 00 00 00       	pushq  $0x1f
  40322b:	e9 f0 fd ff ff       	jmpq   403020 <.plt>

0000000000403230 <_ZdlPv@plt>:
  403230:	ff 25 e2 3e 02 00    	jmpq   *0x23ee2(%rip)        # 427118 <_ZdlPv@GLIBCXX_3.4>
  403236:	68 20 00 00 00       	pushq  $0x20
  40323b:	e9 e0 fd ff ff       	jmpq   403020 <.plt>

0000000000403240 <_ZStlsISt11char_traitsIcEERSt13basic_ostreamIcT_ES5_PKc@plt>:
  403240:	ff 25 da 3e 02 00    	jmpq   *0x23eda(%rip)        # 427120 <_ZStlsISt11char_traitsIcEERSt13basic_ostreamIcT_ES5_PKc@GLIBCXX_3.4>
  403246:	68 21 00 00 00       	pushq  $0x21
  40324b:	e9 d0 fd ff ff       	jmpq   403020 <.plt>

0000000000403250 <_Znwm@plt>:
  403250:	ff 25 d2 3e 02 00    	jmpq   *0x23ed2(%rip)        # 427128 <_Znwm@GLIBCXX_3.4>
  403256:	68 22 00 00 00       	pushq  $0x22
  40325b:	e9 c0 fd ff ff       	jmpq   403020 <.plt>

0000000000403260 <catgets@plt>:
  403260:	ff 25 ca 3e 02 00    	jmpq   *0x23eca(%rip)        # 427130 <catgets@GLIBC_2.2.5>
  403266:	68 23 00 00 00       	pushq  $0x23
  40326b:	e9 b0 fd ff ff       	jmpq   403020 <.plt>

0000000000403270 <__stack_chk_fail@plt>:
  403270:	ff 25 c2 3e 02 00    	jmpq   *0x23ec2(%rip)        # 427138 <__stack_chk_fail@GLIBC_2.4>
  403276:	68 24 00 00 00       	pushq  $0x24
  40327b:	e9 a0 fd ff ff       	jmpq   403020 <.plt>

0000000000403280 <MPI_Get_processor_name@plt>:
  403280:	ff 25 ba 3e 02 00    	jmpq   *0x23eba(%rip)        # 427140 <MPI_Get_processor_name>
  403286:	68 25 00 00 00       	pushq  $0x25
  40328b:	e9 90 fd ff ff       	jmpq   403020 <.plt>

0000000000403290 <MPI_Comm_split_type@plt>:
  403290:	ff 25 b2 3e 02 00    	jmpq   *0x23eb2(%rip)        # 427148 <MPI_Comm_split_type>
  403296:	68 26 00 00 00       	pushq  $0x26
  40329b:	e9 80 fd ff ff       	jmpq   403020 <.plt>

00000000004032a0 <MPI_Comm_size@plt>:
  4032a0:	ff 25 aa 3e 02 00    	jmpq   *0x23eaa(%rip)        # 427150 <MPI_Comm_size>
  4032a6:	68 27 00 00 00       	pushq  $0x27
  4032ab:	e9 70 fd ff ff       	jmpq   403020 <.plt>

00000000004032b0 <exit@plt>:
  4032b0:	ff 25 a2 3e 02 00    	jmpq   *0x23ea2(%rip)        # 427158 <exit@GLIBC_2.2.5>
  4032b6:	68 28 00 00 00       	pushq  $0x28
  4032bb:	e9 60 fd ff ff       	jmpq   403020 <.plt>

00000000004032c0 <getenv@plt>:
  4032c0:	ff 25 9a 3e 02 00    	jmpq   *0x23e9a(%rip)        # 427160 <getenv@GLIBC_2.2.5>
  4032c6:	68 29 00 00 00       	pushq  $0x29
  4032cb:	e9 50 fd ff ff       	jmpq   403020 <.plt>

00000000004032d0 <MPI_Allreduce@plt>:
  4032d0:	ff 25 92 3e 02 00    	jmpq   *0x23e92(%rip)        # 427168 <MPI_Allreduce>
  4032d6:	68 2a 00 00 00       	pushq  $0x2a
  4032db:	e9 40 fd ff ff       	jmpq   403020 <.plt>

00000000004032e0 <MPI_Wtime@plt>:
  4032e0:	ff 25 8a 3e 02 00    	jmpq   *0x23e8a(%rip)        # 427170 <MPI_Wtime>
  4032e6:	68 2b 00 00 00       	pushq  $0x2b
  4032eb:	e9 30 fd ff ff       	jmpq   403020 <.plt>

00000000004032f0 <__cxa_call_unexpected@plt>:
  4032f0:	ff 25 82 3e 02 00    	jmpq   *0x23e82(%rip)        # 427178 <__cxa_call_unexpected@CXXABI_1.3>
  4032f6:	68 2c 00 00 00       	pushq  $0x2c
  4032fb:	e9 20 fd ff ff       	jmpq   403020 <.plt>

0000000000403300 <MPI_Reduce@plt>:
  403300:	ff 25 7a 3e 02 00    	jmpq   *0x23e7a(%rip)        # 427180 <MPI_Reduce>
  403306:	68 2d 00 00 00       	pushq  $0x2d
  40330b:	e9 10 fd ff ff       	jmpq   403020 <.plt>

0000000000403310 <_ZNSt9basic_iosIcSt11char_traitsIcEE4initEPSt15basic_streambufIcS1_E@plt>:
  403310:	ff 25 72 3e 02 00    	jmpq   *0x23e72(%rip)        # 427188 <_ZNSt9basic_iosIcSt11char_traitsIcEE4initEPSt15basic_streambufIcS1_E@GLIBCXX_3.4>
  403316:	68 2e 00 00 00       	pushq  $0x2e
  40331b:	e9 00 fd ff ff       	jmpq   403020 <.plt>

0000000000403320 <__vsprintf_chk@plt>:
  403320:	ff 25 6a 3e 02 00    	jmpq   *0x23e6a(%rip)        # 427190 <__vsprintf_chk@GLIBC_2.3.4>
  403326:	68 2f 00 00 00       	pushq  $0x2f
  40332b:	e9 f0 fc ff ff       	jmpq   403020 <.plt>

0000000000403330 <_ZNSt6localeD1Ev@plt>:
  403330:	ff 25 62 3e 02 00    	jmpq   *0x23e62(%rip)        # 427198 <_ZNSt6localeD1Ev@GLIBCXX_3.4>
  403336:	68 30 00 00 00       	pushq  $0x30
  40333b:	e9 e0 fc ff ff       	jmpq   403020 <.plt>

0000000000403340 <MPI_Comm_rank@plt>:
  403340:	ff 25 5a 3e 02 00    	jmpq   *0x23e5a(%rip)        # 4271a0 <MPI_Comm_rank>
  403346:	68 31 00 00 00       	pushq  $0x31
  40334b:	e9 d0 fc ff ff       	jmpq   403020 <.plt>

0000000000403350 <MPI_Init@plt>:
  403350:	ff 25 52 3e 02 00    	jmpq   *0x23e52(%rip)        # 4271a8 <MPI_Init>
  403356:	68 32 00 00 00       	pushq  $0x32
  40335b:	e9 c0 fc ff ff       	jmpq   403020 <.plt>

0000000000403360 <read@plt>:
  403360:	ff 25 4a 3e 02 00    	jmpq   *0x23e4a(%rip)        # 4271b0 <read@GLIBC_2.2.5>
  403366:	68 33 00 00 00       	pushq  $0x33
  40336b:	e9 b0 fc ff ff       	jmpq   403020 <.plt>

0000000000403370 <tolower@plt>:
  403370:	ff 25 42 3e 02 00    	jmpq   *0x23e42(%rip)        # 4271b8 <tolower@GLIBC_2.2.5>
  403376:	68 34 00 00 00       	pushq  $0x34
  40337b:	e9 a0 fc ff ff       	jmpq   403020 <.plt>

0000000000403380 <getpid@plt>:
  403380:	ff 25 3a 3e 02 00    	jmpq   *0x23e3a(%rip)        # 4271c0 <getpid@GLIBC_2.2.5>
  403386:	68 35 00 00 00       	pushq  $0x35
  40338b:	e9 90 fc ff ff       	jmpq   403020 <.plt>

0000000000403390 <gethostname@plt>:
  403390:	ff 25 32 3e 02 00    	jmpq   *0x23e32(%rip)        # 4271c8 <gethostname@GLIBC_2.2.5>
  403396:	68 36 00 00 00       	pushq  $0x36
  40339b:	e9 80 fc ff ff       	jmpq   403020 <.plt>

00000000004033a0 <setenv@plt>:
  4033a0:	ff 25 2a 3e 02 00    	jmpq   *0x23e2a(%rip)        # 4271d0 <setenv@GLIBC_2.2.5>
  4033a6:	68 37 00 00 00       	pushq  $0x37
  4033ab:	e9 70 fc ff ff       	jmpq   403020 <.plt>

00000000004033b0 <puts@plt>:
  4033b0:	ff 25 22 3e 02 00    	jmpq   *0x23e22(%rip)        # 4271d8 <puts@GLIBC_2.2.5>
  4033b6:	68 38 00 00 00       	pushq  $0x38
  4033bb:	e9 60 fc ff ff       	jmpq   403020 <.plt>

00000000004033c0 <_ZNSt7__cxx1112basic_stringIcSt11char_traitsIcESaIcEE10_M_replaceEmmPKcm@plt>:
  4033c0:	ff 25 1a 3e 02 00    	jmpq   *0x23e1a(%rip)        # 4271e0 <_ZNSt7__cxx1112basic_stringIcSt11char_traitsIcESaIcEE10_M_replaceEmmPKcm@GLIBCXX_3.4.21>
  4033c6:	68 39 00 00 00       	pushq  $0x39
  4033cb:	e9 50 fc ff ff       	jmpq   403020 <.plt>

00000000004033d0 <_ZNSt7__cxx1112basic_stringIcSt11char_traitsIcESaIcEE7reserveEm@plt>:
  4033d0:	ff 25 12 3e 02 00    	jmpq   *0x23e12(%rip)        # 4271e8 <_ZNSt7__cxx1112basic_stringIcSt11char_traitsIcESaIcEE7reserveEm@GLIBCXX_3.4.21>
  4033d6:	68 3a 00 00 00       	pushq  $0x3a
  4033db:	e9 40 fc ff ff       	jmpq   403020 <.plt>

00000000004033e0 <_ZStlsIcSt11char_traitsIcEERSt13basic_ostreamIT_T0_ES6_St13_Setprecision@plt>:
  4033e0:	ff 25 0a 3e 02 00    	jmpq   *0x23e0a(%rip)        # 4271f0 <_ZStlsIcSt11char_traitsIcEERSt13basic_ostreamIT_T0_ES6_St13_Setprecision@GLIBCXX_3.4>
  4033e6:	68 3b 00 00 00       	pushq  $0x3b
  4033eb:	e9 30 fc ff ff       	jmpq   403020 <.plt>

00000000004033f0 <MPI_Comm_free@plt>:
  4033f0:	ff 25 02 3e 02 00    	jmpq   *0x23e02(%rip)        # 4271f8 <MPI_Comm_free>
  4033f6:	68 3c 00 00 00       	pushq  $0x3c
  4033fb:	e9 20 fc ff ff       	jmpq   403020 <.plt>

0000000000403400 <snprintf@plt>:
  403400:	ff 25 fa 3d 02 00    	jmpq   *0x23dfa(%rip)        # 427200 <snprintf@GLIBC_2.2.5>
  403406:	68 3d 00 00 00       	pushq  $0x3d
  40340b:	e9 10 fc ff ff       	jmpq   403020 <.plt>

0000000000403410 <memmove@plt>:
  403410:	ff 25 f2 3d 02 00    	jmpq   *0x23df2(%rip)        # 427208 <memmove@GLIBC_2.2.5>
  403416:	68 3e 00 00 00       	pushq  $0x3e
  40341b:	e9 00 fc ff ff       	jmpq   403020 <.plt>

0000000000403420 <__fprintf_chk@plt>:
  403420:	ff 25 ea 3d 02 00    	jmpq   *0x23dea(%rip)        # 427210 <__fprintf_chk@GLIBC_2.3.4>
  403426:	68 3f 00 00 00       	pushq  $0x3f
  40342b:	e9 f0 fb ff ff       	jmpq   403020 <.plt>

0000000000403430 <__gxx_personality_v0@plt>:
  403430:	ff 25 e2 3d 02 00    	jmpq   *0x23de2(%rip)        # 427218 <__gxx_personality_v0@CXXABI_1.3>
  403436:	68 40 00 00 00       	pushq  $0x40
  40343b:	e9 e0 fb ff ff       	jmpq   403020 <.plt>

0000000000403440 <_ZNSolsEi@plt>:
  403440:	ff 25 da 3d 02 00    	jmpq   *0x23dda(%rip)        # 427220 <_ZNSolsEi@GLIBCXX_3.4>
  403446:	68 41 00 00 00       	pushq  $0x41
  40344b:	e9 d0 fb ff ff       	jmpq   403020 <.plt>

0000000000403450 <_Unwind_Resume@plt>:
  403450:	ff 25 d2 3d 02 00    	jmpq   *0x23dd2(%rip)        # 427228 <_Unwind_Resume@GCC_3.0>
  403456:	68 42 00 00 00       	pushq  $0x42
  40345b:	e9 c0 fb ff ff       	jmpq   403020 <.plt>

0000000000403460 <mmap@plt>:
  403460:	ff 25 ca 3d 02 00    	jmpq   *0x23dca(%rip)        # 427230 <mmap@GLIBC_2.2.5>
  403466:	68 43 00 00 00       	pushq  $0x43
  40346b:	e9 b0 fb ff ff       	jmpq   403020 <.plt>

0000000000403470 <_ZNSt7__cxx1112basic_stringIcSt11char_traitsIcESaIcEE9_M_createERmm@plt>:
  403470:	ff 25 c2 3d 02 00    	jmpq   *0x23dc2(%rip)        # 427238 <_ZNSt7__cxx1112basic_stringIcSt11char_traitsIcESaIcEE9_M_createERmm@GLIBCXX_3.4.21>
  403476:	68 44 00 00 00       	pushq  $0x44
  40347b:	e9 a0 fb ff ff       	jmpq   403020 <.plt>

0000000000403480 <remove@plt>:
  403480:	ff 25 ba 3d 02 00    	jmpq   *0x23dba(%rip)        # 427240 <remove@GLIBC_2.2.5>
  403486:	68 45 00 00 00       	pushq  $0x45
  40348b:	e9 90 fb ff ff       	jmpq   403020 <.plt>

0000000000403490 <__libc_start_main@plt>:
  403490:	ff 25 b2 3d 02 00    	jmpq   *0x23db2(%rip)        # 427248 <__libc_start_main@GLIBC_2.2.5>
  403496:	68 46 00 00 00       	pushq  $0x46
  40349b:	e9 80 fb ff ff       	jmpq   403020 <.plt>

00000000004034a0 <_ZNSolsEd@plt>:
  4034a0:	ff 25 aa 3d 02 00    	jmpq   *0x23daa(%rip)        # 427250 <_ZNSolsEd@GLIBCXX_3.4>
  4034a6:	68 47 00 00 00       	pushq  $0x47
  4034ab:	e9 70 fb ff ff       	jmpq   403020 <.plt>

00000000004034b0 <close@plt>:
  4034b0:	ff 25 a2 3d 02 00    	jmpq   *0x23da2(%rip)        # 427258 <close@GLIBC_2.2.5>
  4034b6:	68 48 00 00 00       	pushq  $0x48
  4034bb:	e9 60 fb ff ff       	jmpq   403020 <.plt>

00000000004034c0 <gmtime_r@plt>:
  4034c0:	ff 25 9a 3d 02 00    	jmpq   *0x23d9a(%rip)        # 427260 <gmtime_r@GLIBC_2.2.5>
  4034c6:	68 49 00 00 00       	pushq  $0x49
  4034cb:	e9 50 fb ff ff       	jmpq   403020 <.plt>

00000000004034d0 <_ZNSt6localeC1Ev@plt>:
  4034d0:	ff 25 92 3d 02 00    	jmpq   *0x23d92(%rip)        # 427268 <_ZNSt6localeC1Ev@GLIBCXX_3.4>
  4034d6:	68 4a 00 00 00       	pushq  $0x4a
  4034db:	e9 40 fb ff ff       	jmpq   403020 <.plt>

Disassembly of section .plt.got:

00000000004034e0 <__gmon_start__@plt>:
  4034e0:	ff 25 f2 3a 02 00    	jmpq   *0x23af2(%rip)        # 426fd8 <__gmon_start__>
  4034e6:	66 90                	xchg   %ax,%ax

Disassembly of section .text:

0000000000403500 <_start>:
  403500:	31 ed                	xor    %ebp,%ebp
  403502:	49 89 d1             	mov    %rdx,%r9
  403505:	5e                   	pop    %rsi
  403506:	48 89 e2             	mov    %rsp,%rdx
  403509:	48 83 e4 f0          	and    $0xfffffffffffffff0,%rsp
  40350d:	50                   	push   %rax
  40350e:	54                   	push   %rsp
  40350f:	49 c7 c0 70 0d 42 00 	mov    $0x420d70,%r8
  403516:	48 c7 c1 00 0d 42 00 	mov    $0x420d00,%rcx
  40351d:	48 c7 c7 e0 35 40 00 	mov    $0x4035e0,%rdi
  403524:	e8 67 ff ff ff       	callq  403490 <__libc_start_main@plt>
  403529:	f4                   	hlt    
  40352a:	66 0f 1f 44 00 00    	nopw   0x0(%rax,%rax,1)

0000000000403530 <deregister_tm_clones>:
  403530:	48 8d 3d a9 45 02 00 	lea    0x245a9(%rip),%rdi        # 427ae0 <__TMC_END__>
  403537:	48 8d 05 a2 45 02 00 	lea    0x245a2(%rip),%rax        # 427ae0 <__TMC_END__>
  40353e:	48 39 f8             	cmp    %rdi,%rax
  403541:	74 15                	je     403558 <deregister_tm_clones+0x28>
  403543:	48 8b 05 7e 3a 02 00 	mov    0x23a7e(%rip),%rax        # 426fc8 <_ITM_deregisterTMCloneTable>
  40354a:	48 85 c0             	test   %rax,%rax
  40354d:	74 09                	je     403558 <deregister_tm_clones+0x28>
  40354f:	ff e0                	jmpq   *%rax
  403551:	0f 1f 80 00 00 00 00 	nopl   0x0(%rax)
  403558:	c3                   	retq   
  403559:	0f 1f 80 00 00 00 00 	nopl   0x0(%rax)

0000000000403560 <register_tm_clones>:
  403560:	48 8d 3d 79 45 02 00 	lea    0x24579(%rip),%rdi        # 427ae0 <__TMC_END__>
  403567:	48 8d 35 72 45 02 00 	lea    0x24572(%rip),%rsi        # 427ae0 <__TMC_END__>
  40356e:	48 29 fe             	sub    %rdi,%rsi
  403571:	48 c1 fe 03          	sar    $0x3,%rsi
  403575:	48 89 f0             	mov    %rsi,%rax
  403578:	48 c1 e8 3f          	shr    $0x3f,%rax
  40357c:	48 01 c6             	add    %rax,%rsi
  40357f:	48 d1 fe             	sar    %rsi
  403582:	74 14                	je     403598 <register_tm_clones+0x38>
  403584:	48 8b 05 55 3a 02 00 	mov    0x23a55(%rip),%rax        # 426fe0 <_ITM_registerTMCloneTable>
  40358b:	48 85 c0             	test   %rax,%rax
  40358e:	74 08                	je     403598 <register_tm_clones+0x38>
  403590:	ff e0                	jmpq   *%rax
  403592:	66 0f 1f 44 00 00    	nopw   0x0(%rax,%rax,1)
  403598:	c3                   	retq   
  403599:	0f 1f 80 00 00 00 00 	nopl   0x0(%rax)

00000000004035a0 <__do_global_dtors_aux>:
  4035a0:	80 3d 39 45 02 00 00 	cmpb   $0x0,0x24539(%rip)        # 427ae0 <__TMC_END__>
  4035a7:	75 17                	jne    4035c0 <__do_global_dtors_aux+0x20>
  4035a9:	55                   	push   %rbp
  4035aa:	48 89 e5             	mov    %rsp,%rbp
  4035ad:	e8 7e ff ff ff       	callq  403530 <deregister_tm_clones>
  4035b2:	c6 05 27 45 02 00 01 	movb   $0x1,0x24527(%rip)        # 427ae0 <__TMC_END__>
  4035b9:	5d                   	pop    %rbp
  4035ba:	c3                   	retq   
  4035bb:	0f 1f 44 00 00       	nopl   0x0(%rax,%rax,1)
  4035c0:	c3                   	retq   
  4035c1:	66 66 2e 0f 1f 84 00 	data16 nopw %cs:0x0(%rax,%rax,1)
  4035c8:	00 00 00 00 
  4035cc:	0f 1f 40 00          	nopl   0x0(%rax)

00000000004035d0 <frame_dummy>:
  4035d0:	eb 8e                	jmp    403560 <register_tm_clones>
  4035d2:	66 2e 0f 1f 84 00 00 	nopw   %cs:0x0(%rax,%rax,1)
  4035d9:	00 00 00 
  4035dc:	0f 1f 40 00          	nopl   0x0(%rax)

00000000004035e0 <main>:
  4035e0:	55                   	push   %rbp
  4035e1:	48 89 e5             	mov    %rsp,%rbp
  4035e4:	48 83 e4 80          	and    $0xffffffffffffff80,%rsp
  4035e8:	41 54                	push   %r12
  4035ea:	41 55                	push   %r13
  4035ec:	41 56                	push   %r14
  4035ee:	41 57                	push   %r15
  4035f0:	53                   	push   %rbx
  4035f1:	48 81 ec d8 06 00 00 	sub    $0x6d8,%rsp
  4035f8:	89 bc 24 c8 06 00 00 	mov    %edi,0x6c8(%rsp)
  4035ff:	bf 03 00 00 00       	mov    $0x3,%edi
  403604:	48 89 b4 24 b0 06 00 	mov    %rsi,0x6b0(%rsp)
  40360b:	00 
  40360c:	33 f6                	xor    %esi,%esi
  40360e:	e8 3d 34 00 00       	callq  406a50 <__intel_new_feature_proc_init>
  403613:	c5 f8 ae 1c 24       	vstmxcsr (%rsp)
  403618:	81 0c 24 40 80 00 00 	orl    $0x8040,(%rsp)
  40361f:	48 8d bc 24 c8 06 00 	lea    0x6c8(%rsp),%rdi
  403626:	00 
  403627:	c5 f8 ae 14 24       	vldmxcsr (%rsp)
  40362c:	48 8d b4 24 b0 06 00 	lea    0x6b0(%rsp),%rsi
  403633:	00 
  403634:	e8 17 fd ff ff       	callq  403350 <MPI_Init@plt>
  403639:	bf 00 00 00 44       	mov    $0x44000000,%edi
  40363e:	be f0 7a 42 00       	mov    $0x427af0,%esi
  403643:	e8 58 fc ff ff       	callq  4032a0 <MPI_Comm_size@plt>
  403648:	bf 00 00 00 44       	mov    $0x44000000,%edi
  40364d:	be f4 7a 42 00       	mov    $0x427af4,%esi
  403652:	e8 e9 fc ff ff       	callq  403340 <MPI_Comm_rank@plt>
  403657:	bf 00 00 00 44       	mov    $0x44000000,%edi
  40365c:	be 01 00 00 00       	mov    $0x1,%esi
  403661:	33 d2                	xor    %edx,%edx
  403663:	b9 00 00 00 1c       	mov    $0x1c000000,%ecx
  403668:	4c 8d 84 24 b8 06 00 	lea    0x6b8(%rsp),%r8
  40366f:	00 
  403670:	e8 1b fc ff ff       	callq  403290 <MPI_Comm_split_type@plt>
  403675:	8b bc 24 b8 06 00 00 	mov    0x6b8(%rsp),%edi
  40367c:	48 8d b4 24 bc 06 00 	lea    0x6bc(%rsp),%rsi
  403683:	00 
  403684:	e8 b7 fc ff ff       	callq  403340 <MPI_Comm_rank@plt>
  403689:	83 bc 24 bc 06 00 00 	cmpl   $0x0,0x6bc(%rsp)
  403690:	00 
  403691:	75 0d                	jne    4036a0 <main+0xc0>
  403693:	c7 84 24 c0 06 00 00 	movl   $0x1,0x6c0(%rsp)
  40369a:	01 00 00 00 
  40369e:	eb 0b                	jmp    4036ab <main+0xcb>
  4036a0:	c7 84 24 c0 06 00 00 	movl   $0x0,0x6c0(%rsp)
  4036a7:	00 00 00 00 
  4036ab:	ba 01 00 00 00       	mov    $0x1,%edx
  4036b0:	48 8d bc 24 c0 06 00 	lea    0x6c0(%rsp),%rdi
  4036b7:	00 
  4036b8:	b9 05 04 00 4c       	mov    $0x4c000405,%ecx
  4036bd:	48 8d b4 24 c4 06 00 	lea    0x6c4(%rsp),%rsi
  4036c4:	00 
  4036c5:	41 b8 03 00 00 58    	mov    $0x58000003,%r8d
  4036cb:	41 b9 00 00 00 44    	mov    $0x44000000,%r9d
  4036d1:	e8 fa fb ff ff       	callq  4032d0 <MPI_Allreduce@plt>
  4036d6:	48 8d bc 24 b8 06 00 	lea    0x6b8(%rsp),%rdi
  4036dd:	00 
  4036de:	e8 0d fd ff ff       	callq  4033f0 <MPI_Comm_free@plt>
  4036e3:	8b 84 24 c4 06 00 00 	mov    0x6c4(%rsp),%eax
  4036ea:	bf 10 10 42 00       	mov    $0x421010,%edi
  4036ef:	89 05 03 44 02 00    	mov    %eax,0x24403(%rip)        # 427af8 <node_count>
  4036f5:	e8 c6 fb ff ff       	callq  4032c0 <getenv@plt>
  4036fa:	48 85 c0             	test   %rax,%rax
  4036fd:	0f 84 b9 22 00 00    	je     4059bc <main+0x23dc>
  403703:	48 85 c0             	test   %rax,%rax
  403706:	0f 84 a8 22 00 00    	je     4059b4 <main+0x23d4>
  40370c:	48 89 c1             	mov    %rax,%rcx
  40370f:	ff 15 93 38 02 00    	callq  *0x23893(%rip)        # 426fa8 <.got+0x8>
  403715:	41 89 c5             	mov    %eax,%r13d
  403718:	e8 c3 fb ff ff       	callq  4032e0 <MPI_Wtime@plt>
  40371d:	c5 fb 11 05 c3 43 02 	vmovsd %xmm0,0x243c3(%rip)        # 427ae8 <t0>
  403724:	00 
  403725:	48 8d 94 24 b8 05 00 	lea    0x5b8(%rsp),%rdx
  40372c:	00 
  40372d:	48 89 52 f0          	mov    %rdx,-0x10(%rdx)
  403731:	48 8d bc 24 d8 05 00 	lea    0x5d8(%rsp),%rdi
  403738:	00 
  403739:	48 c7 42 f8 00 00 00 	movq   $0x0,-0x8(%rdx)
  403740:	00 
  403741:	c6 02 00             	movb   $0x0,(%rdx)
  403744:	48 8b 1d 45 3b 02 00 	mov    0x23b45(%rip),%rbx        # 427290 <DEFAULT_FILENAME_PREFIX>
  40374b:	48 89 7a 10          	mov    %rdi,0x10(%rdx)
  40374f:	48 85 db             	test   %rbx,%rbx
  403752:	0f 84 34 05 00 00    	je     403c8c <main+0x6ac>
  403758:	48 89 da             	mov    %rbx,%rdx
  40375b:	48 89 d1             	mov    %rdx,%rcx
  40375e:	48 83 e2 f0          	and    $0xfffffffffffffff0,%rdx
  403762:	c5 f9 ef c0          	vpxor  %xmm0,%xmm0,%xmm0
  403766:	c5 f9 74 02          	vpcmpeqb (%rdx),%xmm0,%xmm0
  40376a:	c5 f9 d7 c0          	vpmovmskb %xmm0,%eax
  40376e:	83 e1 0f             	and    $0xf,%ecx
  403771:	d3 e8                	shr    %cl,%eax
  403773:	0f bc c0             	bsf    %eax,%eax
  403776:	75 0c                	jne    403784 <main+0x1a4>
  403778:	48 89 d0             	mov    %rdx,%rax
  40377b:	48 03 d1             	add    %rcx,%rdx
  40377e:	ff 15 2c 38 02 00    	callq  *0x2382c(%rip)        # 426fb0 <.got+0x10>
  403784:	49 89 c4             	mov    %rax,%r12
  403787:	4c 89 a4 24 a0 06 00 	mov    %r12,0x6a0(%rsp)
  40378e:	00 
  40378f:	4c 89 e1             	mov    %r12,%rcx
  403792:	49 83 fc 0f          	cmp    $0xf,%r12
  403796:	76 32                	jbe    4037ca <main+0x1ea>
  403798:	33 d2                	xor    %edx,%edx
  40379a:	48 8d bc 24 c8 05 00 	lea    0x5c8(%rsp),%rdi
  4037a1:	00 
  4037a2:	48 8d b4 24 a0 06 00 	lea    0x6a0(%rsp),%rsi
  4037a9:	00 
  4037aa:	e8 c1 fc ff ff       	callq  403470 <_ZNSt7__cxx1112basic_stringIcSt11char_traitsIcESaIcEE9_M_createERmm@plt>
  4037af:	48 89 c7             	mov    %rax,%rdi
  4037b2:	48 8b 8c 24 a0 06 00 	mov    0x6a0(%rsp),%rcx
  4037b9:	00 
  4037ba:	48 89 bc 24 c8 05 00 	mov    %rdi,0x5c8(%rsp)
  4037c1:	00 
  4037c2:	48 89 8c 24 d8 05 00 	mov    %rcx,0x5d8(%rsp)
  4037c9:	00 
  4037ca:	49 83 fc 01          	cmp    $0x1,%r12
  4037ce:	75 0e                	jne    4037de <main+0x1fe>
  4037d0:	8a 13                	mov    (%rbx),%dl
  4037d2:	88 17                	mov    %dl,(%rdi)
  4037d4:	48 8b bc 24 c8 05 00 	mov    0x5c8(%rsp),%rdi
  4037db:	00 
  4037dc:	eb 20                	jmp    4037fe <main+0x21e>
  4037de:	4d 85 e4             	test   %r12,%r12
  4037e1:	74 1b                	je     4037fe <main+0x21e>
  4037e3:	48 89 de             	mov    %rbx,%rsi
  4037e6:	4c 89 e2             	mov    %r12,%rdx
  4037e9:	e8 32 30 00 00       	callq  406820 <_intel_fast_memcpy>
  4037ee:	48 8b bc 24 c8 05 00 	mov    0x5c8(%rsp),%rdi
  4037f5:	00 
  4037f6:	48 8b 8c 24 a0 06 00 	mov    0x6a0(%rsp),%rcx
  4037fd:	00 
  4037fe:	48 89 8c 24 d0 05 00 	mov    %rcx,0x5d0(%rsp)
  403805:	00 
  403806:	ba 00 10 00 00       	mov    $0x1000,%edx
  40380b:	c6 04 0f 00          	movb   $0x0,(%rdi,%rcx,1)
  40380f:	41 bf 01 00 00 00    	mov    $0x1,%r15d
  403815:	c5 fb 10 05 83 db 01 	vmovsd 0x1db83(%rip),%xmm0        # 4213a0 <_IO_stdin_used+0x3a0>
  40381c:	00 
  40381d:	4c 63 b4 24 c8 06 00 	movslq 0x6c8(%rsp),%r14
  403824:	00 
  403825:	4c 8b a4 24 b0 06 00 	mov    0x6b0(%rsp),%r12
  40382c:	00 
  40382d:	c5 fb 11 84 24 e8 05 	vmovsd %xmm0,0x5e8(%rsp)
  403834:	00 00 
  403836:	c7 84 24 f0 05 00 00 	movl   $0x1000,0x5f0(%rsp)
  40383d:	00 10 00 00 
  403841:	48 c7 84 24 f8 05 00 	movq   $0x6400000,0x5f8(%rsp)
  403848:	00 00 00 40 06 
  40384d:	c6 84 24 00 06 00 00 	movb   $0x1,0x600(%rsp)
  403854:	01 
  403855:	49 83 fe 01          	cmp    $0x1,%r14
  403859:	0f 8e dc 04 00 00    	jle    403d3b <main+0x75b>
  40385f:	4b 8b 1c fc          	mov    (%r12,%r15,8),%rbx
  403863:	48 89 d8             	mov    %rbx,%rax
  403866:	b9 24 10 42 00       	mov    $0x421024,%ecx
  40386b:	ba 06 00 00 00       	mov    $0x6,%edx
  403870:	ff 15 4a 37 02 00    	callq  *0x2374a(%rip)        # 426fc0 <.got+0x20>
  403876:	85 c0                	test   %eax,%eax
  403878:	75 39                	jne    4038b3 <main+0x2d3>
  40387a:	be 2c 10 42 00       	mov    $0x42102c,%esi
  40387f:	48 8d 7b 06          	lea    0x6(%rbx),%rdi
  403883:	33 c0                	xor    %eax,%eax
  403885:	48 8d 94 24 e8 05 00 	lea    0x5e8(%rsp),%rdx
  40388c:	00 
  40388d:	e8 fe f8 ff ff       	callq  403190 <sscanf@plt>
  403892:	83 f8 01             	cmp    $0x1,%eax
  403895:	0f 85 43 04 00 00    	jne    403cde <main+0x6fe>
  40389b:	c5 f9 57 c0          	vxorpd %xmm0,%xmm0,%xmm0
  40389f:	c5 f9 2f 84 24 e8 05 	vcomisd 0x5e8(%rsp),%xmm0
  4038a6:	00 00 
  4038a8:	0f 83 30 04 00 00    	jae    403cde <main+0x6fe>
  4038ae:	e9 c8 03 00 00       	jmpq   403c7b <main+0x69b>
  4038b3:	48 89 d8             	mov    %rbx,%rax
  4038b6:	b9 30 10 42 00       	mov    $0x421030,%ecx
  4038bb:	ba 08 00 00 00       	mov    $0x8,%edx
  4038c0:	ff 15 fa 36 02 00    	callq  *0x236fa(%rip)        # 426fc0 <.got+0x20>
  4038c6:	85 c0                	test   %eax,%eax
  4038c8:	75 4e                	jne    403918 <main+0x338>
  4038ca:	48 83 c3 08          	add    $0x8,%rbx
  4038ce:	48 89 da             	mov    %rbx,%rdx
  4038d1:	48 89 d1             	mov    %rdx,%rcx
  4038d4:	48 83 e2 f0          	and    $0xfffffffffffffff0,%rdx
  4038d8:	c5 f9 ef c0          	vpxor  %xmm0,%xmm0,%xmm0
  4038dc:	c5 f9 74 02          	vpcmpeqb (%rdx),%xmm0,%xmm0
  4038e0:	c5 f9 d7 c0          	vpmovmskb %xmm0,%eax
  4038e4:	83 e1 0f             	and    $0xf,%ecx
  4038e7:	d3 e8                	shr    %cl,%eax
  4038e9:	0f bc c0             	bsf    %eax,%eax
  4038ec:	75 0c                	jne    4038fa <main+0x31a>
  4038ee:	48 89 d0             	mov    %rdx,%rax
  4038f1:	48 03 d1             	add    %rcx,%rdx
  4038f4:	ff 15 b6 36 02 00    	callq  *0x236b6(%rip)        # 426fb0 <.got+0x10>
  4038fa:	33 f6                	xor    %esi,%esi
  4038fc:	48 8d bc 24 c8 05 00 	lea    0x5c8(%rsp),%rdi
  403903:	00 
  403904:	48 89 d9             	mov    %rbx,%rcx
  403907:	49 89 c0             	mov    %rax,%r8
  40390a:	48 8b 57 08          	mov    0x8(%rdi),%rdx
  40390e:	e8 ad fa ff ff       	callq  4033c0 <_ZNSt7__cxx1112basic_stringIcSt11char_traitsIcESaIcEE10_M_replaceEmmPKcm@plt>
  403913:	e9 63 03 00 00       	jmpq   403c7b <main+0x69b>
  403918:	48 89 d8             	mov    %rbx,%rax
  40391b:	b9 3c 10 42 00       	mov    $0x42103c,%ecx
  403920:	ba 08 00 00 00       	mov    $0x8,%edx
  403925:	ff 15 95 36 02 00    	callq  *0x23695(%rip)        # 426fc0 <.got+0x20>
  40392b:	85 c0                	test   %eax,%eax
  40392d:	0f 85 11 01 00 00    	jne    403a44 <main+0x464>
  403933:	49 89 d9             	mov    %rbx,%r9
  403936:	49 83 c1 08          	add    $0x8,%r9
  40393a:	4c 89 4c 24 18       	mov    %r9,0x18(%rsp)
  40393f:	0f 84 de 00 00 00    	je     403a23 <main+0x443>
  403945:	0f be 7b 08          	movsbl 0x8(%rbx),%edi
  403949:	85 ff                	test   %edi,%edi
  40394b:	0f 84 d2 00 00 00    	je     403a23 <main+0x443>
  403951:	89 7c 24 10          	mov    %edi,0x10(%rsp)
  403955:	e8 b6 f8 ff ff       	callq  403210 <isdigit@plt>
  40395a:	8b 7c 24 10          	mov    0x10(%rsp),%edi
  40395e:	85 c0                	test   %eax,%eax
  403960:	75 09                	jne    40396b <main+0x38b>
  403962:	83 ff 2e             	cmp    $0x2e,%edi
  403965:	0f 85 b8 00 00 00    	jne    403a23 <main+0x443>
  40396b:	be 48 10 42 00       	mov    $0x421048,%esi
  403970:	48 8d 94 24 98 02 00 	lea    0x298(%rsp),%rdx
  403977:	00 
  403978:	33 c0                	xor    %eax,%eax
  40397a:	48 8d 8c 24 94 02 00 	lea    0x294(%rsp),%rcx
  403981:	00 
  403982:	48 8b 7c 24 18       	mov    0x18(%rsp),%rdi
  403987:	e8 04 f8 ff ff       	callq  403190 <sscanf@plt>
  40398c:	83 f8 01             	cmp    $0x1,%eax
  40398f:	0f 85 8e 00 00 00    	jne    403a23 <main+0x443>
  403995:	4c 63 94 24 94 02 00 	movslq 0x294(%rsp),%r10
  40399c:	00 
  40399d:	4c 8b 4c 24 18       	mov    0x18(%rsp),%r9
  4039a2:	43 0f be 3c 11       	movsbl (%r9,%r10,1),%edi
  4039a7:	e8 c4 f9 ff ff       	callq  403370 <tolower@plt>
  4039ac:	4c 0f be c8          	movsbq %al,%r9
  4039b0:	45 85 c9             	test   %r9d,%r9d
  4039b3:	74 2d                	je     4039e2 <main+0x402>
  4039b5:	45 33 d2             	xor    %r10d,%r10d
  4039b8:	41 83 f9 6b          	cmp    $0x6b,%r9d
  4039bc:	74 1a                	je     4039d8 <main+0x3f8>
  4039be:	41 ba 01 00 00 00    	mov    $0x1,%r10d
  4039c4:	45 3a 8a e8 13 42 00 	cmp    0x4213e8(%r10),%r9b
  4039cb:	74 0b                	je     4039d8 <main+0x3f8>
  4039cd:	49 ff c2             	inc    %r10
  4039d0:	49 83 fa 06          	cmp    $0x6,%r10
  4039d4:	7c ee                	jl     4039c4 <main+0x3e4>
  4039d6:	74 4b                	je     403a23 <main+0x443>
  4039d8:	4e 8b 0c d5 b8 13 42 	mov    0x4213b8(,%r10,8),%r9
  4039df:	00 
  4039e0:	eb 06                	jmp    4039e8 <main+0x408>
  4039e2:	41 b9 01 00 00 00    	mov    $0x1,%r9d
  4039e8:	c5 f9 57 c0          	vxorpd %xmm0,%xmm0,%xmm0
  4039ec:	62 d1 ff 08 7b c1    	vcvtusi2sd %r9,%xmm0,%xmm0
  4039f2:	c5 fb 59 8c 24 98 02 	vmulsd 0x298(%rsp),%xmm0,%xmm1
  4039f9:	00 00 
  4039fb:	62 71 ff 08 78 c9    	vcvttsd2usi %xmm1,%r9
  403a01:	49 81 f9 fc ff ff 7f 	cmp    $0x7ffffffc,%r9
  403a08:	0f 87 05 03 00 00    	ja     403d13 <main+0x733>
  403a0e:	41 83 c1 07          	add    $0x7,%r9d
  403a12:	41 83 e1 f8          	and    $0xfffffff8,%r9d
  403a16:	44 89 8c 24 f0 05 00 	mov    %r9d,0x5f0(%rsp)
  403a1d:	00 
  403a1e:	e9 58 02 00 00       	jmpq   403c7b <main+0x69b>
  403a23:	83 3d ca 40 02 00 00 	cmpl   $0x0,0x240ca(%rip)        # 427af4 <rank>
  403a2a:	0f 85 1b 01 00 00    	jne    403b4b <main+0x56b>
  403a30:	bf 50 10 42 00       	mov    $0x421050,%edi
  403a35:	48 89 de             	mov    %rbx,%rsi
  403a38:	33 c0                	xor    %eax,%eax
  403a3a:	e8 11 f6 ff ff       	callq  403050 <printf@plt>
  403a3f:	e9 07 01 00 00       	jmpq   403b4b <main+0x56b>
  403a44:	48 89 d8             	mov    %rbx,%rax
  403a47:	b9 70 10 42 00       	mov    $0x421070,%ecx
  403a4c:	ba 0a 00 00 00       	mov    $0xa,%edx
  403a51:	ff 15 69 35 02 00    	callq  *0x23569(%rip)        # 426fc0 <.got+0x20>
  403a57:	85 c0                	test   %eax,%eax
  403a59:	0f 85 3f 01 00 00    	jne    403b9e <main+0x5be>
  403a5f:	49 89 d9             	mov    %rbx,%r9
  403a62:	49 83 c1 0a          	add    $0xa,%r9
  403a66:	4c 89 4c 24 08       	mov    %r9,0x8(%rsp)
  403a6b:	0f 84 c2 00 00 00    	je     403b33 <main+0x553>
  403a71:	0f be 7b 0a          	movsbl 0xa(%rbx),%edi
  403a75:	85 ff                	test   %edi,%edi
  403a77:	0f 84 b6 00 00 00    	je     403b33 <main+0x553>
  403a7d:	89 3c 24             	mov    %edi,(%rsp)
  403a80:	e8 8b f7 ff ff       	callq  403210 <isdigit@plt>
  403a85:	8b 3c 24             	mov    (%rsp),%edi
  403a88:	85 c0                	test   %eax,%eax
  403a8a:	75 09                	jne    403a95 <main+0x4b5>
  403a8c:	83 ff 2e             	cmp    $0x2e,%edi
  403a8f:	0f 85 9e 00 00 00    	jne    403b33 <main+0x553>
  403a95:	be 48 10 42 00       	mov    $0x421048,%esi
  403a9a:	48 8d 94 24 88 02 00 	lea    0x288(%rsp),%rdx
  403aa1:	00 
  403aa2:	33 c0                	xor    %eax,%eax
  403aa4:	48 8d 8c 24 90 02 00 	lea    0x290(%rsp),%rcx
  403aab:	00 
  403aac:	48 8b 7c 24 08       	mov    0x8(%rsp),%rdi
  403ab1:	e8 da f6 ff ff       	callq  403190 <sscanf@plt>
  403ab6:	83 f8 01             	cmp    $0x1,%eax
  403ab9:	75 78                	jne    403b33 <main+0x553>
  403abb:	4c 63 94 24 90 02 00 	movslq 0x290(%rsp),%r10
  403ac2:	00 
  403ac3:	4c 8b 4c 24 08       	mov    0x8(%rsp),%r9
  403ac8:	43 0f be 3c 11       	movsbl (%r9,%r10,1),%edi
  403acd:	e8 9e f8 ff ff       	callq  403370 <tolower@plt>
  403ad2:	4c 0f be c8          	movsbq %al,%r9
  403ad6:	45 85 c9             	test   %r9d,%r9d
  403ad9:	74 2d                	je     403b08 <main+0x528>
  403adb:	45 33 d2             	xor    %r10d,%r10d
  403ade:	41 83 f9 6b          	cmp    $0x6b,%r9d
  403ae2:	74 1a                	je     403afe <main+0x51e>
  403ae4:	41 ba 01 00 00 00    	mov    $0x1,%r10d
  403aea:	45 3a 8a e8 13 42 00 	cmp    0x4213e8(%r10),%r9b
  403af1:	74 0b                	je     403afe <main+0x51e>
  403af3:	49 ff c2             	inc    %r10
  403af6:	49 83 fa 06          	cmp    $0x6,%r10
  403afa:	7c ee                	jl     403aea <main+0x50a>
  403afc:	74 35                	je     403b33 <main+0x553>
  403afe:	4a 8b 14 d5 b8 13 42 	mov    0x4213b8(,%r10,8),%rdx
  403b05:	00 
  403b06:	eb 05                	jmp    403b0d <main+0x52d>
  403b08:	ba 01 00 00 00       	mov    $0x1,%edx
  403b0d:	c5 f9 57 c0          	vxorpd %xmm0,%xmm0,%xmm0
  403b11:	62 f1 ff 08 7b c2    	vcvtusi2sd %rdx,%xmm0,%xmm0
  403b17:	c5 fb 59 8c 24 88 02 	vmulsd 0x288(%rsp),%xmm0,%xmm1
  403b1e:	00 00 
  403b20:	62 f1 ff 08 78 d1    	vcvttsd2usi %xmm1,%rdx
  403b26:	48 89 94 24 f8 05 00 	mov    %rdx,0x5f8(%rsp)
  403b2d:	00 
  403b2e:	e9 48 01 00 00       	jmpq   403c7b <main+0x69b>
  403b33:	83 3d ba 3f 02 00 00 	cmpl   $0x0,0x23fba(%rip)        # 427af4 <rank>
  403b3a:	75 0f                	jne    403b4b <main+0x56b>
  403b3c:	bf 7c 10 42 00       	mov    $0x42107c,%edi
  403b41:	48 89 de             	mov    %rbx,%rsi
  403b44:	33 c0                	xor    %eax,%eax
  403b46:	e8 05 f5 ff ff       	callq  403050 <printf@plt>
  403b4b:	e8 70 f6 ff ff       	callq  4031c0 <MPI_Finalize@plt>
  403b50:	48 8b bc 24 c8 05 00 	mov    0x5c8(%rsp),%rdi
  403b57:	00 
  403b58:	48 8d 84 24 d8 05 00 	lea    0x5d8(%rsp),%rax
  403b5f:	00 
  403b60:	48 3b f8             	cmp    %rax,%rdi
  403b63:	74 05                	je     403b6a <main+0x58a>
  403b65:	e8 c6 f6 ff ff       	callq  403230 <_ZdlPv@plt>
  403b6a:	48 8b bc 24 a8 05 00 	mov    0x5a8(%rsp),%rdi
  403b71:	00 
  403b72:	48 8d 84 24 b8 05 00 	lea    0x5b8(%rsp),%rax
  403b79:	00 
  403b7a:	48 3b f8             	cmp    %rax,%rdi
  403b7d:	74 05                	je     403b84 <main+0x5a4>
  403b7f:	e8 ac f6 ff ff       	callq  403230 <_ZdlPv@plt>
  403b84:	b8 01 00 00 00       	mov    $0x1,%eax
  403b89:	48 81 c4 d8 06 00 00 	add    $0x6d8,%rsp
  403b90:	5b                   	pop    %rbx
  403b91:	41 5f                	pop    %r15
  403b93:	41 5e                	pop    %r14
  403b95:	41 5d                	pop    %r13
  403b97:	41 5c                	pop    %r12
  403b99:	48 89 ec             	mov    %rbp,%rsp
  403b9c:	5d                   	pop    %rbp
  403b9d:	c3                   	retq   
  403b9e:	48 89 d8             	mov    %rbx,%rax
  403ba1:	b9 9c 10 42 00       	mov    $0x42109c,%ecx
  403ba6:	ba 05 00 00 00       	mov    $0x5,%edx
  403bab:	ff 15 0f 34 02 00    	callq  *0x2340f(%rip)        # 426fc0 <.got+0x20>
  403bb1:	85 c0                	test   %eax,%eax
  403bb3:	74 7d                	je     403c32 <main+0x652>
  403bb5:	48 89 df             	mov    %rbx,%rdi
  403bb8:	be a4 10 42 00       	mov    $0x4210a4,%esi
  403bbd:	8a 17                	mov    (%rdi),%dl
  403bbf:	3a 16                	cmp    (%rsi),%dl
  403bc1:	75 1c                	jne    403bdf <main+0x5ff>
  403bc3:	84 d2                	test   %dl,%dl
  403bc5:	74 14                	je     403bdb <main+0x5fb>
  403bc7:	8a 57 01             	mov    0x1(%rdi),%dl
  403bca:	3a 56 01             	cmp    0x1(%rsi),%dl
  403bcd:	75 10                	jne    403bdf <main+0x5ff>
  403bcf:	48 83 c7 02          	add    $0x2,%rdi
  403bd3:	48 83 c6 02          	add    $0x2,%rsi
  403bd7:	84 d2                	test   %dl,%dl
  403bd9:	75 e2                	jne    403bbd <main+0x5dd>
  403bdb:	33 c0                	xor    %eax,%eax
  403bdd:	eb 05                	jmp    403be4 <main+0x604>
  403bdf:	1b c0                	sbb    %eax,%eax
  403be1:	83 c8 01             	or     $0x1,%eax
  403be4:	85 c0                	test   %eax,%eax
  403be6:	75 0d                	jne    403bf5 <main+0x615>
  403be8:	c6 84 24 00 06 00 00 	movb   $0x0,0x600(%rsp)
  403bef:	00 
  403bf0:	e9 86 00 00 00       	jmpq   403c7b <main+0x69b>
  403bf5:	83 3d f8 3e 02 00 00 	cmpl   $0x0,0x23ef8(%rip)        # 427af4 <rank>
  403bfc:	75 28                	jne    403c26 <main+0x646>
  403bfe:	bf 20 14 42 00       	mov    $0x421420,%edi
  403c03:	c5 fb 10 05 95 d7 01 	vmovsd 0x1d795(%rip),%xmm0        # 4213a0 <_IO_stdin_used+0x3a0>
  403c0a:	00 
  403c0b:	ba 00 10 00 00       	mov    $0x1000,%edx
  403c10:	b9 00 00 40 06       	mov    $0x6400000,%ecx
  403c15:	b8 01 00 00 00       	mov    $0x1,%eax
  403c1a:	48 8b 35 6f 36 02 00 	mov    0x2366f(%rip),%rsi        # 427290 <DEFAULT_FILENAME_PREFIX>
  403c21:	e8 2a f4 ff ff       	callq  403050 <printf@plt>
  403c26:	e8 95 f5 ff ff       	callq  4031c0 <MPI_Finalize@plt>
  403c2b:	33 ff                	xor    %edi,%edi
  403c2d:	e8 7e f6 ff ff       	callq  4032b0 <exit@plt>
  403c32:	48 83 c3 05          	add    $0x5,%rbx
  403c36:	48 89 da             	mov    %rbx,%rdx
  403c39:	48 89 d1             	mov    %rdx,%rcx
  403c3c:	48 83 e2 f0          	and    $0xfffffffffffffff0,%rdx
  403c40:	c5 f9 ef c0          	vpxor  %xmm0,%xmm0,%xmm0
  403c44:	c5 f9 74 02          	vpcmpeqb (%rdx),%xmm0,%xmm0
  403c48:	c5 f9 d7 c0          	vpmovmskb %xmm0,%eax
  403c4c:	83 e1 0f             	and    $0xf,%ecx
  403c4f:	d3 e8                	shr    %cl,%eax
  403c51:	0f bc c0             	bsf    %eax,%eax
  403c54:	75 0c                	jne    403c62 <main+0x682>
  403c56:	48 89 d0             	mov    %rdx,%rax
  403c59:	48 03 d1             	add    %rcx,%rdx
  403c5c:	ff 15 4e 33 02 00    	callq  *0x2334e(%rip)        # 426fb0 <.got+0x10>
  403c62:	33 f6                	xor    %esi,%esi
  403c64:	48 8d bc 24 a8 05 00 	lea    0x5a8(%rsp),%rdi
  403c6b:	00 
  403c6c:	48 89 d9             	mov    %rbx,%rcx
  403c6f:	49 89 c0             	mov    %rax,%r8
  403c72:	48 8b 57 08          	mov    0x8(%rdi),%rdx
  403c76:	e8 45 f7 ff ff       	callq  4033c0 <_ZNSt7__cxx1112basic_stringIcSt11char_traitsIcESaIcEE10_M_replaceEmmPKcm@plt>
  403c7b:	49 ff c7             	inc    %r15
  403c7e:	4d 3b fe             	cmp    %r14,%r15
  403c81:	0f 8c d8 fb ff ff    	jl     40385f <main+0x27f>
  403c87:	e9 a8 00 00 00       	jmpq   403d34 <main+0x754>
  403c8c:	bf b0 10 42 00       	mov    $0x4210b0,%edi
  403c91:	e8 ea f4 ff ff       	callq  403180 <_ZSt19__throw_logic_errorPKc@plt>
  403c96:	48 89 44 24 08       	mov    %rax,0x8(%rsp)
  403c9b:	48 8d bc 24 c8 05 00 	lea    0x5c8(%rsp),%rdi
  403ca2:	00 
  403ca3:	e8 28 26 00 00       	callq  4062d0 <_ZNSt7__cxx1112basic_stringIcSt11char_traitsIcESaIcEE12_Alloc_hiderD1Ev>
  403ca8:	48 8d bc 24 b8 05 00 	lea    0x5b8(%rsp),%rdi
  403caf:	00 
  403cb0:	e8 2b 26 00 00       	callq  4062e0 <_ZNSt14pointer_traitsIPKcE10pointer_toERS0_>
  403cb5:	48 8b bc 24 a8 05 00 	mov    0x5a8(%rsp),%rdi
  403cbc:	00 
  403cbd:	48 3b f8             	cmp    %rax,%rdi
  403cc0:	74 05                	je     403cc7 <main+0x6e7>
  403cc2:	e8 69 f5 ff ff       	callq  403230 <_ZdlPv@plt>
  403cc7:	48 8d bc 24 a8 05 00 	lea    0x5a8(%rsp),%rdi
  403cce:	00 
  403ccf:	e8 fc 25 00 00       	callq  4062d0 <_ZNSt7__cxx1112basic_stringIcSt11char_traitsIcESaIcEE12_Alloc_hiderD1Ev>
  403cd4:	48 8b 7c 24 08       	mov    0x8(%rsp),%rdi
  403cd9:	e8 72 f7 ff ff       	callq  403450 <_Unwind_Resume@plt>
  403cde:	83 3d 0f 3e 02 00 00 	cmpl   $0x0,0x23e0f(%rip)        # 427af4 <rank>
  403ce5:	0f 85 60 fe ff ff    	jne    403b4b <main+0x56b>
  403ceb:	bf dc 10 42 00       	mov    $0x4210dc,%edi
  403cf0:	48 89 de             	mov    %rbx,%rsi
  403cf3:	33 c0                	xor    %eax,%eax
  403cf5:	e8 56 f3 ff ff       	callq  403050 <printf@plt>
  403cfa:	e9 4c fe ff ff       	jmpq   403b4b <main+0x56b>
  403cff:	48 89 44 24 08       	mov    %rax,0x8(%rsp)
  403d04:	48 8d bc 24 a8 05 00 	lea    0x5a8(%rsp),%rdi
  403d0b:	00 
  403d0c:	e8 cf 24 00 00       	callq  4061e0 <_ZN7OptionsD1Ev>
  403d11:	eb c1                	jmp    403cd4 <main+0x6f4>
  403d13:	83 3d da 3d 02 00 00 	cmpl   $0x0,0x23dda(%rip)        # 427af4 <rank>
  403d1a:	0f 85 2b fe ff ff    	jne    403b4b <main+0x56b>
  403d20:	bf f4 10 42 00       	mov    $0x4210f4,%edi
  403d25:	48 89 de             	mov    %rbx,%rsi
  403d28:	33 c0                	xor    %eax,%eax
  403d2a:	e8 21 f3 ff ff       	callq  403050 <printf@plt>
  403d2f:	e9 17 fe ff ff       	jmpq   403b4b <main+0x56b>
  403d34:	8b 94 24 f0 05 00 00 	mov    0x5f0(%rsp),%edx
  403d3b:	48 8d bc 24 48 06 00 	lea    0x648(%rsp),%rdi
  403d42:	00 
  403d43:	89 57 f8             	mov    %edx,-0x8(%rdi)
  403d46:	45 33 e4             	xor    %r12d,%r12d
  403d49:	e8 a2 25 00 00       	callq  4062f0 <_ZNSt6vectorIlSaIlEEC1Ev>
  403d4e:	48 8d bc 24 a0 04 00 	lea    0x4a0(%rsp),%rdi
  403d55:	00 
  403d56:	48 8d b4 24 24 05 00 	lea    0x524(%rsp),%rsi
  403d5d:	00 
  403d5e:	e8 1d f5 ff ff       	callq  403280 <MPI_Get_processor_name@plt>
  403d63:	48 63 94 24 24 05 00 	movslq 0x524(%rsp),%rdx
  403d6a:	00 
  403d6b:	48 8d 84 24 a0 04 00 	lea    0x4a0(%rsp),%rax
  403d72:	00 
  403d73:	41 bb 2e 00 00 00    	mov    $0x2e,%r11d
  403d79:	c6 84 14 a0 04 00 00 	movb   $0x0,0x4a0(%rsp,%rdx,1)
  403d80:	00 
  403d81:	48 89 c1             	mov    %rax,%rcx
  403d84:	83 e1 0f             	and    $0xf,%ecx
  403d87:	48 83 e0 f0          	and    $0xfffffffffffffff0,%rax
  403d8b:	c5 e9 ef d2          	vpxor  %xmm2,%xmm2,%xmm2
  403d8f:	c4 c1 79 6e cb       	vmovd  %r11d,%xmm1
  403d94:	c4 e2 71 00 ca       	vpshufb %xmm2,%xmm1,%xmm1
  403d99:	c5 f9 6f 00          	vmovdqa (%rax),%xmm0
  403d9d:	c5 e9 74 d0          	vpcmpeqb %xmm0,%xmm2,%xmm2
  403da1:	c5 f9 74 c1          	vpcmpeqb %xmm1,%xmm0,%xmm0
  403da5:	c5 79 d7 d8          	vpmovmskb %xmm0,%r11d
  403da9:	c5 79 d7 d2          	vpmovmskb %xmm2,%r10d
  403dad:	41 d3 eb             	shr    %cl,%r11d
  403db0:	41 d3 ea             	shr    %cl,%r10d
  403db3:	45 85 db             	test   %r11d,%r11d
  403db6:	75 07                	jne    403dbf <main+0x7df>
  403db8:	45 85 d2             	test   %r10d,%r10d
  403dbb:	74 1d                	je     403dda <main+0x7fa>
  403dbd:	eb 17                	jmp    403dd6 <main+0x7f6>
  403dbf:	45 0f bc db          	bsf    %r11d,%r11d
  403dc3:	45 0f bc d2          	bsf    %r10d,%r10d
  403dc7:	74 05                	je     403dce <main+0x7ee>
  403dc9:	45 3b da             	cmp    %r10d,%r11d
  403dcc:	7f 08                	jg     403dd6 <main+0x7f6>
  403dce:	48 03 c1             	add    %rcx,%rax
  403dd1:	49 03 c3             	add    %r11,%rax
  403dd4:	eb 0a                	jmp    403de0 <main+0x800>
  403dd6:	33 c0                	xor    %eax,%eax
  403dd8:	eb 06                	jmp    403de0 <main+0x800>
  403dda:	ff 15 f0 31 02 00    	callq  *0x231f0(%rip)        # 426fd0 <.got+0x30>
  403de0:	48 85 c0             	test   %rax,%rax
  403de3:	74 03                	je     403de8 <main+0x808>
  403de5:	c6 00 00             	movb   $0x0,(%rax)
  403de8:	48 8b 1d 91 2e 02 00 	mov    0x22e91(%rip),%rbx        # 426c80 <_ZTTNSt7__cxx1119basic_ostringstreamIcSt11char_traitsIcESaIcEEE@@GLIBCXX_3.4.21>
  403def:	48 8d bc 24 80 01 00 	lea    0x180(%rsp),%rdi
  403df6:	00 
  403df7:	48 89 5f 90          	mov    %rbx,-0x70(%rdi)
  403dfb:	e8 60 f2 ff ff       	callq  403060 <_ZNSt8ios_baseC2Ev@plt>
  403e00:	33 d2                	xor    %edx,%edx
  403e02:	33 c9                	xor    %ecx,%ecx
  403e04:	48 89 94 24 58 02 00 	mov    %rdx,0x258(%rsp)
  403e0b:	00 
  403e0c:	48 89 94 24 68 02 00 	mov    %rdx,0x268(%rsp)
  403e13:	00 
  403e14:	48 89 94 24 70 02 00 	mov    %rdx,0x270(%rsp)
  403e1b:	00 
  403e1c:	48 89 94 24 78 02 00 	mov    %rdx,0x278(%rsp)
  403e23:	00 
  403e24:	48 89 94 24 80 02 00 	mov    %rdx,0x280(%rsp)
  403e2b:	00 
  403e2c:	48 c7 84 24 80 01 00 	movq   $0x426bf0,0x180(%rsp)
  403e33:	00 f0 6b 42 00 
  403e38:	88 8c 24 60 02 00 00 	mov    %cl,0x260(%rsp)
  403e3f:	88 8c 24 61 02 00 00 	mov    %cl,0x261(%rsp)
  403e46:	48 8b 15 3b 2e 02 00 	mov    0x22e3b(%rip),%rdx        # 426c88 <_ZTTNSt7__cxx1119basic_ostringstreamIcSt11char_traitsIcESaIcEEE@@GLIBCXX_3.4.21+0x8>
  403e4d:	33 f6                	xor    %esi,%esi
  403e4f:	48 8b 0d 3a 2e 02 00 	mov    0x22e3a(%rip),%rcx        # 426c90 <_ZTTNSt7__cxx1119basic_ostringstreamIcSt11char_traitsIcESaIcEEE@@GLIBCXX_3.4.21+0x10>
  403e56:	48 89 94 24 10 01 00 	mov    %rdx,0x110(%rsp)
  403e5d:	00 
  403e5e:	4c 8b 4a e8          	mov    -0x18(%rdx),%r9
  403e62:	4a 89 8c 0c 10 01 00 	mov    %rcx,0x110(%rsp,%r9,1)
  403e69:	00 
  403e6a:	4c 8b 94 24 10 01 00 	mov    0x110(%rsp),%r10
  403e71:	00 
  403e72:	4d 8b 5a e8          	mov    -0x18(%r10),%r11
  403e76:	4a 8d bc 1c 10 01 00 	lea    0x110(%rsp,%r11,1),%rdi
  403e7d:	00 
  403e7e:	e8 8d f4 ff ff       	callq  403310 <_ZNSt9basic_iosIcSt11char_traitsIcEE4initEPSt15basic_streambufIcS1_E@plt>
  403e83:	48 8b 4b e8          	mov    -0x18(%rbx),%rcx
  403e87:	48 8d bc 24 50 01 00 	lea    0x150(%rsp),%rdi
  403e8e:	00 
  403e8f:	48 8b 15 02 2e 02 00 	mov    0x22e02(%rip),%rdx        # 426c98 <_ZTTNSt7__cxx1119basic_ostringstreamIcSt11char_traitsIcESaIcEEE@@GLIBCXX_3.4.21+0x18>
  403e96:	48 89 5f c0          	mov    %rbx,-0x40(%rdi)
  403e9a:	33 db                	xor    %ebx,%ebx
  403e9c:	48 89 94 0c 10 01 00 	mov    %rdx,0x110(%rsp,%rcx,1)
  403ea3:	00 
  403ea4:	48 89 5f d0          	mov    %rbx,-0x30(%rdi)
  403ea8:	48 89 5f d8          	mov    %rbx,-0x28(%rdi)
  403eac:	48 89 5f e0          	mov    %rbx,-0x20(%rdi)
  403eb0:	48 89 5f e8          	mov    %rbx,-0x18(%rdi)
  403eb4:	48 89 5f f0          	mov    %rbx,-0x10(%rdi)
  403eb8:	48 89 5f f8          	mov    %rbx,-0x8(%rdi)
  403ebc:	48 c7 47 c8 10 6c 42 	movq   $0x426c10,-0x38(%rdi)
  403ec3:	00 
  403ec4:	e8 07 f6 ff ff       	callq  4034d0 <_ZNSt6localeC1Ev@plt>
  403ec9:	c7 84 24 58 01 00 00 	movl   $0x10,0x158(%rsp)
  403ed0:	10 00 00 00 
  403ed4:	48 8d 94 24 70 01 00 	lea    0x170(%rsp),%rdx
  403edb:	00 
  403edc:	48 c7 42 f8 00 00 00 	movq   $0x0,-0x8(%rdx)
  403ee3:	00 
  403ee4:	48 8d b4 24 18 01 00 	lea    0x118(%rsp),%rsi
  403eeb:	00 
  403eec:	48 c7 42 a8 b0 6c 42 	movq   $0x426cb0,-0x58(%rdx)
  403ef3:	00 
  403ef4:	48 89 52 f0          	mov    %rdx,-0x10(%rdx)
  403ef8:	c6 02 00             	movb   $0x0,(%rdx)
  403efb:	48 8b 4a a0          	mov    -0x60(%rdx),%rcx
  403eff:	48 8b 59 e8          	mov    -0x18(%rcx),%rbx
  403f03:	48 8d bc 1c 10 01 00 	lea    0x110(%rsp,%rbx,1),%rdi
  403f0a:	00 
  403f0b:	e8 00 f4 ff ff       	callq  403310 <_ZNSt9basic_iosIcSt11char_traitsIcEE4initEPSt15basic_streambufIcS1_E@plt>
  403f10:	48 8d bc 24 10 01 00 	lea    0x110(%rsp),%rdi
  403f17:	00 
  403f18:	48 8d b4 24 c8 05 00 	lea    0x5c8(%rsp),%rsi
  403f1f:	00 
  403f20:	e8 db f2 ff ff       	callq  403200 <_ZStlsIcSt11char_traitsIcESaIcEERSt13basic_ostreamIT_T0_ES7_RKNSt7__cxx1112basic_stringIS4_S5_T1_EE@plt>
  403f25:	48 89 c7             	mov    %rax,%rdi
  403f28:	be 0c 11 42 00       	mov    $0x42110c,%esi
  403f2d:	e8 0e f3 ff ff       	callq  403240 <_ZStlsISt11char_traitsIcEERSt13basic_ostreamIcT_ES5_PKc@plt>
  403f32:	48 89 c7             	mov    %rax,%rdi
  403f35:	48 8d b4 24 a0 04 00 	lea    0x4a0(%rsp),%rsi
  403f3c:	00 
  403f3d:	e8 fe f2 ff ff       	callq  403240 <_ZStlsISt11char_traitsIcEERSt13basic_ostreamIcT_ES5_PKc@plt>
  403f42:	48 89 c7             	mov    %rax,%rdi
  403f45:	be 0c 11 42 00       	mov    $0x42110c,%esi
  403f4a:	e8 f1 f2 ff ff       	callq  403240 <_ZStlsISt11char_traitsIcEERSt13basic_ostreamIcT_ES5_PKc@plt>
  403f4f:	48 89 c3             	mov    %rax,%rbx
  403f52:	e8 29 f4 ff ff       	callq  403380 <getpid@plt>
  403f57:	48 89 df             	mov    %rbx,%rdi
  403f5a:	89 c6                	mov    %eax,%esi
  403f5c:	e8 df f4 ff ff       	callq  403440 <_ZNSolsEi@plt>
  403f61:	48 c7 84 24 10 06 00 	movq   $0x0,0x610(%rsp)
  403f68:	00 00 00 00 00 
  403f6d:	48 8d 94 24 18 06 00 	lea    0x618(%rsp),%rdx
  403f74:	00 
  403f75:	48 89 52 f0          	mov    %rdx,-0x10(%rdx)
  403f79:	c6 02 00             	movb   $0x0,(%rdx)
  403f7c:	48 8b 9a 28 fb ff ff 	mov    -0x4d8(%rdx),%rbx
  403f83:	48 85 db             	test   %rbx,%rbx
  403f86:	75 17                	jne    403f9f <main+0x9bf>
  403f88:	48 8d bc 24 08 06 00 	lea    0x608(%rsp),%rdi
  403f8f:	00 
  403f90:	48 8d b4 24 60 01 00 	lea    0x160(%rsp),%rsi
  403f97:	00 
  403f98:	e8 b3 f1 ff ff       	callq  403150 <_ZNSt7__cxx1112basic_stringIcSt11char_traitsIcESaIcEE9_M_assignERKS4_@plt>
  403f9d:	eb 4e                	jmp    403fed <main+0xa0d>
  403f9f:	4c 8b 84 24 30 01 00 	mov    0x130(%rsp),%r8
  403fa6:	00 
  403fa7:	49 3b d8             	cmp    %r8,%rbx
  403faa:	76 23                	jbe    403fcf <main+0x9ef>
  403fac:	48 8b 8c 24 38 01 00 	mov    0x138(%rsp),%rcx
  403fb3:	00 
  403fb4:	48 2b d9             	sub    %rcx,%rbx
  403fb7:	33 f6                	xor    %esi,%esi
  403fb9:	48 8d bc 24 08 06 00 	lea    0x608(%rsp),%rdi
  403fc0:	00 
  403fc1:	49 89 d8             	mov    %rbx,%r8
  403fc4:	48 8b 57 08          	mov    0x8(%rdi),%rdx
  403fc8:	e8 f3 f3 ff ff       	callq  4033c0 <_ZNSt7__cxx1112basic_stringIcSt11char_traitsIcESaIcEE10_M_replaceEmmPKcm@plt>
  403fcd:	eb 1e                	jmp    403fed <main+0xa0d>
  403fcf:	48 8b 8c 24 38 01 00 	mov    0x138(%rsp),%rcx
  403fd6:	00 
  403fd7:	4c 2b c1             	sub    %rcx,%r8
  403fda:	33 f6                	xor    %esi,%esi
  403fdc:	48 8d bc 24 08 06 00 	lea    0x608(%rsp),%rdi
  403fe3:	00 
  403fe4:	48 8b 57 08          	mov    0x8(%rdi),%rdx
  403fe8:	e8 d3 f3 ff ff       	callq  4033c0 <_ZNSt7__cxx1112basic_stringIcSt11char_traitsIcESaIcEE10_M_replaceEmmPKcm@plt>
  403fed:	48 8b 15 8c 2c 02 00 	mov    0x22c8c(%rip),%rdx        # 426c80 <_ZTTNSt7__cxx1119basic_ostringstreamIcSt11char_traitsIcESaIcEEE@@GLIBCXX_3.4.21>
  403ff4:	48 8d b4 24 70 01 00 	lea    0x170(%rsp),%rsi
  403ffb:	00 
  403ffc:	48 8b 0d 95 2c 02 00 	mov    0x22c95(%rip),%rcx        # 426c98 <_ZTTNSt7__cxx1119basic_ostringstreamIcSt11char_traitsIcESaIcEEE@@GLIBCXX_3.4.21+0x18>
  404003:	48 89 56 a0          	mov    %rdx,-0x60(%rsi)
  404007:	48 8b 5a e8          	mov    -0x18(%rdx),%rbx
  40400b:	48 89 8c 1c 10 01 00 	mov    %rcx,0x110(%rsp,%rbx,1)
  404012:	00 
  404013:	48 8b 7e f0          	mov    -0x10(%rsi),%rdi
  404017:	48 3b fe             	cmp    %rsi,%rdi
  40401a:	74 05                	je     404021 <main+0xa41>
  40401c:	e8 0f f2 ff ff       	callq  403230 <_ZdlPv@plt>
  404021:	48 8d bc 24 50 01 00 	lea    0x150(%rsp),%rdi
  404028:	00 
  404029:	48 c7 47 c8 10 6c 42 	movq   $0x426c10,-0x38(%rdi)
  404030:	00 
  404031:	e8 fa f2 ff ff       	callq  403330 <_ZNSt6localeD1Ev@plt>
  404036:	48 8b 15 4b 2c 02 00 	mov    0x22c4b(%rip),%rdx        # 426c88 <_ZTTNSt7__cxx1119basic_ostringstreamIcSt11char_traitsIcESaIcEEE@@GLIBCXX_3.4.21+0x8>
  40403d:	48 8b 0d 4c 2c 02 00 	mov    0x22c4c(%rip),%rcx        # 426c90 <_ZTTNSt7__cxx1119basic_ostringstreamIcSt11char_traitsIcESaIcEEE@@GLIBCXX_3.4.21+0x10>
  404044:	48 89 94 24 10 01 00 	mov    %rdx,0x110(%rsp)
  40404b:	00 
  40404c:	48 8b 5a e8          	mov    -0x18(%rdx),%rbx
  404050:	48 89 8c 1c 10 01 00 	mov    %rcx,0x110(%rsp,%rbx,1)
  404057:	00 
  404058:	48 8d bc 24 80 01 00 	lea    0x180(%rsp),%rdi
  40405f:	00 
  404060:	48 c7 07 f0 6b 42 00 	movq   $0x426bf0,(%rdi)
  404067:	e8 14 f0 ff ff       	callq  403080 <_ZNSt8ios_baseD2Ev@plt>
  40406c:	48 8b 94 24 08 06 00 	mov    0x608(%rsp),%rdx
  404073:	00 
  404074:	bf 04 10 42 00       	mov    $0x421004,%edi
  404079:	48 89 94 24 98 06 00 	mov    %rdx,0x698(%rsp)
  404080:	00 
  404081:	e8 2a f3 ff ff       	callq  4033b0 <puts@plt>
  404086:	be 41 02 00 00       	mov    $0x241,%esi
  40408b:	ba a4 01 00 00       	mov    $0x1a4,%edx
  404090:	33 c0                	xor    %eax,%eax
  404092:	48 8b bc 24 98 06 00 	mov    0x698(%rsp),%rdi
  404099:	00 
  40409a:	e8 11 f1 ff ff       	callq  4031b0 <open@plt>
  40409f:	ba 01 00 00 00       	mov    $0x1,%edx
  4040a4:	48 8d bc 24 ac 06 00 	lea    0x6ac(%rsp),%rdi
  4040ab:	00 
  4040ac:	b9 05 04 00 4c       	mov    $0x4c000405,%ecx
  4040b1:	48 8d b4 24 a8 06 00 	lea    0x6a8(%rsp),%rsi
  4040b8:	00 
  4040b9:	41 b8 02 00 00 58    	mov    $0x58000002,%r8d
  4040bf:	41 b9 00 00 00 44    	mov    $0x44000000,%r9d
  4040c5:	89 46 04             	mov    %eax,0x4(%rsi)
  4040c8:	e8 03 f2 ff ff       	callq  4032d0 <MPI_Allreduce@plt>
  4040cd:	83 bc 24 a8 06 00 00 	cmpl   $0x0,0x6a8(%rsp)
  4040d4:	00 
  4040d5:	0f 8d 8d 00 00 00    	jge    404168 <main+0xb88>
  4040db:	83 bc 24 ac 06 00 00 	cmpl   $0xffffffff,0x6ac(%rsp)
  4040e2:	ff 
  4040e3:	0f 84 93 15 00 00    	je     40567c <main+0x209c>
  4040e9:	e8 d2 f0 ff ff       	callq  4031c0 <MPI_Finalize@plt>
  4040ee:	48 8b bc 24 08 06 00 	mov    0x608(%rsp),%rdi
  4040f5:	00 
  4040f6:	48 8d 84 24 18 06 00 	lea    0x618(%rsp),%rax
  4040fd:	00 
  4040fe:	48 3b f8             	cmp    %rax,%rdi
  404101:	74 05                	je     404108 <main+0xb28>
  404103:	e8 28 f1 ff ff       	callq  403230 <_ZdlPv@plt>
  404108:	48 8b bc 24 48 06 00 	mov    0x648(%rsp),%rdi
  40410f:	00 
  404110:	48 85 ff             	test   %rdi,%rdi
  404113:	74 05                	je     40411a <main+0xb3a>
  404115:	e8 16 f1 ff ff       	callq  403230 <_ZdlPv@plt>
  40411a:	48 8b bc 24 c8 05 00 	mov    0x5c8(%rsp),%rdi
  404121:	00 
  404122:	48 8d 84 24 d8 05 00 	lea    0x5d8(%rsp),%rax
  404129:	00 
  40412a:	48 3b f8             	cmp    %rax,%rdi
  40412d:	74 05                	je     404134 <main+0xb54>
  40412f:	e8 fc f0 ff ff       	callq  403230 <_ZdlPv@plt>
  404134:	48 8b bc 24 a8 05 00 	mov    0x5a8(%rsp),%rdi
  40413b:	00 
  40413c:	48 8d 84 24 b8 05 00 	lea    0x5b8(%rsp),%rax
  404143:	00 
  404144:	48 3b f8             	cmp    %rax,%rdi
  404147:	74 05                	je     40414e <main+0xb6e>
  404149:	e8 e2 f0 ff ff       	callq  403230 <_ZdlPv@plt>
  40414e:	b8 01 00 00 00       	mov    $0x1,%eax
  404153:	48 81 c4 d8 06 00 00 	add    $0x6d8,%rsp
  40415a:	5b                   	pop    %rbx
  40415b:	41 5f                	pop    %r15
  40415d:	41 5e                	pop    %r14
  40415f:	41 5d                	pop    %r13
  404161:	41 5c                	pop    %r12
  404163:	48 89 ec             	mov    %rbp,%rsp
  404166:	5d                   	pop    %rbp
  404167:	c3                   	retq   
  404168:	48 63 9c 24 f0 05 00 	movslq 0x5f0(%rsp),%rbx
  40416f:	00 
  404170:	49 89 df             	mov    %rbx,%r15
  404173:	49 c1 ef 03          	shr    $0x3,%r15
  404177:	0f 85 47 17 00 00    	jne    4058c4 <main+0x22e4>
  40417d:	33 ff                	xor    %edi,%edi
  40417f:	45 33 f6             	xor    %r14d,%r14d
  404182:	48 89 bc 24 60 06 00 	mov    %rdi,0x660(%rsp)
  404189:	00 
  40418a:	4a 8d 0c 37          	lea    (%rdi,%r14,1),%rcx
  40418e:	48 89 0c 24          	mov    %rcx,(%rsp)
  404192:	48 89 8c 24 70 06 00 	mov    %rcx,0x670(%rsp)
  404199:	00 
  40419a:	4d 85 ff             	test   %r15,%r15
  40419d:	74 20                	je     4041bf <main+0xbdf>
  40419f:	49 83 ff 0c          	cmp    $0xc,%r15
  4041a3:	0f 86 cb 16 00 00    	jbe    405874 <main+0x2294>
  4041a9:	33 f6                	xor    %esi,%esi
  4041ab:	4c 89 f2             	mov    %r14,%rdx
  4041ae:	48 89 bc 24 68 06 00 	mov    %rdi,0x668(%rsp)
  4041b5:	00 
  4041b6:	e8 15 28 00 00       	callq  4069d0 <_intel_fast_memset>
  4041bb:	48 8b 3c 24          	mov    (%rsp),%rdi
  4041bf:	48 89 bc 24 68 06 00 	mov    %rdi,0x668(%rsp)
  4041c6:	00 
  4041c7:	48 c1 eb 03          	shr    $0x3,%rbx
  4041cb:	0f 85 4d 16 00 00    	jne    40581e <main+0x223e>
  4041d1:	33 ff                	xor    %edi,%edi
  4041d3:	45 33 f6             	xor    %r14d,%r14d
  4041d6:	48 89 bc 24 28 06 00 	mov    %rdi,0x628(%rsp)
  4041dd:	00 
  4041de:	4e 8d 3c 37          	lea    (%rdi,%r14,1),%r15
  4041e2:	4c 89 bc 24 38 06 00 	mov    %r15,0x638(%rsp)
  4041e9:	00 
  4041ea:	48 85 db             	test   %rbx,%rbx
  4041ed:	74 22                	je     404211 <main+0xc31>
  4041ef:	48 83 fb 0c          	cmp    $0xc,%rbx
  4041f3:	0f 86 d5 15 00 00    	jbe    4057ce <main+0x21ee>
  4041f9:	33 f6                	xor    %esi,%esi
  4041fb:	4c 89 f2             	mov    %r14,%rdx
  4041fe:	48 89 bc 24 30 06 00 	mov    %rdi,0x630(%rsp)
  404205:	00 
  404206:	c5 f8 77             	vzeroupper 
  404209:	e8 c2 27 00 00       	callq  4069d0 <_intel_fast_memset>
  40420e:	4c 89 ff             	mov    %r15,%rdi
  404211:	48 89 bc 24 30 06 00 	mov    %rdi,0x630(%rsp)
  404218:	00 
  404219:	32 db                	xor    %bl,%bl
  40421b:	83 3d d2 38 02 00 00 	cmpl   $0x0,0x238d2(%rip)        # 427af4 <rank>
  404222:	0f 85 c4 00 00 00    	jne    4042ec <main+0xd0c>
  404228:	be 00 01 00 00       	mov    $0x100,%esi
  40422d:	48 8d 7c 24 10       	lea    0x10(%rsp),%rdi
  404232:	c5 f8 77             	vzeroupper 
  404235:	e8 56 f1 ff ff       	callq  403390 <gethostname@plt>
  40423a:	33 f6                	xor    %esi,%esi
  40423c:	48 8d bc 24 88 05 00 	lea    0x588(%rsp),%rdi
  404243:	00 
  404244:	e8 87 17 00 00       	callq  4059d0 <_Z9timestampB5cxx11i..0>
  404249:	48 83 c4 d0          	add    $0xffffffffffffffd0,%rsp
  40424d:	bf 20 16 42 00       	mov    $0x421620,%edi
  404252:	4c 8b 94 24 f8 05 00 	mov    0x5f8(%rsp),%r10
  404259:	00 
  40425a:	45 89 e8             	mov    %r13d,%r8d
  40425d:	44 8b 9c 24 20 06 00 	mov    0x620(%rsp),%r11d
  404264:	00 
  404265:	4c 8d 4c 24 40       	lea    0x40(%rsp),%r9
  40426a:	41 80 b9 f0 05 00 00 	cmpb   $0x0,0x5f0(%r9)
  404271:	00 
  404272:	4d 8b b1 e8 05 00 00 	mov    0x5e8(%r9),%r14
  404279:	4c 89 14 24          	mov    %r10,(%rsp)
  40427d:	41 ba 34 11 42 00    	mov    $0x421134,%r10d
  404283:	44 89 5c 24 08       	mov    %r11d,0x8(%rsp)
  404288:	41 bb 10 11 42 00    	mov    $0x421110,%r11d
  40428e:	4d 8b b9 98 05 00 00 	mov    0x598(%r9),%r15
  404295:	4d 0f 45 da          	cmovne %r10,%r11
  404299:	b8 01 00 00 00       	mov    $0x1,%eax
  40429e:	c4 c1 7b 10 81 d8 05 	vmovsd 0x5d8(%r9),%xmm0
  4042a5:	00 00 
  4042a7:	8b 15 43 38 02 00    	mov    0x23843(%rip),%edx        # 427af0 <np>
  4042ad:	8b 0d 45 38 02 00    	mov    0x23845(%rip),%ecx        # 427af8 <node_count>
  4042b3:	4c 89 74 24 10       	mov    %r14,0x10(%rsp)
  4042b8:	49 8b b1 78 05 00 00 	mov    0x578(%r9),%rsi
  4042bf:	4c 89 7c 24 18       	mov    %r15,0x18(%rsp)
  4042c4:	4c 89 5c 24 20       	mov    %r11,0x20(%rsp)
  4042c9:	e8 82 ed ff ff       	callq  403050 <printf@plt>
  4042ce:	48 83 c4 30          	add    $0x30,%rsp
  4042d2:	48 8b bc 24 88 05 00 	mov    0x588(%rsp),%rdi
  4042d9:	00 
  4042da:	48 8d 84 24 98 05 00 	lea    0x598(%rsp),%rax
  4042e1:	00 
  4042e2:	48 3b f8             	cmp    %rax,%rdi
  4042e5:	74 05                	je     4042ec <main+0xd0c>
  4042e7:	e8 44 ef ff ff       	callq  403230 <_ZdlPv@plt>
  4042ec:	bf 00 00 00 44       	mov    $0x44000000,%edi
  4042f1:	c5 f8 77             	vzeroupper 
  4042f4:	e8 a7 ee ff ff       	callq  4031a0 <MPI_Barrier@plt>
  4042f9:	e8 e2 ef ff ff       	callq  4032e0 <MPI_Wtime@plt>
  4042fe:	c5 fb 11 44 24 08    	vmovsd %xmm0,0x8(%rsp)
  404304:	45 33 f6             	xor    %r14d,%r14d
  404307:	bf 1c 11 42 00       	mov    $0x42111c,%edi
  40430c:	44 8b ac 24 ac 06 00 	mov    0x6ac(%rsp),%r13d
  404313:	00 
  404314:	44 89 ee             	mov    %r13d,%esi
  404317:	33 c0                	xor    %eax,%eax
  404319:	e8 32 ed ff ff       	callq  403050 <printf@plt>
  40431e:	33 ff                	xor    %edi,%edi
  404320:	be 78 00 00 00       	mov    $0x78,%esi
  404325:	ba 01 00 00 00       	mov    $0x1,%edx
  40432a:	b9 20 00 00 00       	mov    $0x20,%ecx
  40432f:	45 89 e8             	mov    %r13d,%r8d
  404332:	45 33 c9             	xor    %r9d,%r9d
  404335:	e8 26 f1 ff ff       	callq  403460 <mmap@plt>
  40433a:	bf 28 11 42 00       	mov    $0x421128,%edi
  40433f:	48 89 c6             	mov    %rax,%rsi
  404342:	33 c0                	xor    %eax,%eax
  404344:	e8 07 ed ff ff       	callq  403050 <printf@plt>
  404349:	8b bc 24 ac 06 00 00 	mov    0x6ac(%rsp),%edi
  404350:	41 ff c6             	inc    %r14d
  404353:	45 33 ed             	xor    %r13d,%r13d
  404356:	48 83 bc 24 f8 05 00 	cmpq   $0x0,0x5f8(%rsp)
  40435d:	00 00 
  40435f:	0f 8e e2 01 00 00    	jle    404547 <main+0xf67>
  404365:	e8 76 ef ff ff       	callq  4032e0 <MPI_Wtime@plt>
  40436a:	c5 fb 5c 05 76 37 02 	vsubsd 0x23776(%rip),%xmm0,%xmm0        # 427ae8 <t0>
  404371:	00 
  404372:	c5 f9 2f 84 24 e8 05 	vcomisd 0x5e8(%rsp),%xmm0
  404379:	00 00 
  40437b:	0f 87 df 13 00 00    	ja     405760 <main+0x2180>
  404381:	48 8b b4 24 60 06 00 	mov    0x660(%rsp),%rsi
  404388:	00 
  404389:	4c 89 e9             	mov    %r13,%rcx
  40438c:	4c 8b 84 24 68 06 00 	mov    0x668(%rsp),%r8
  404393:	00 
  404394:	4c 2b c6             	sub    %rsi,%r8
  404397:	49 c1 f8 03          	sar    $0x3,%r8
  40439b:	0f 84 e1 00 00 00    	je     404482 <main+0xea2>
  4043a1:	49 83 f8 08          	cmp    $0x8,%r8
  4043a5:	0f 8c c3 13 00 00    	jl     40576e <main+0x218e>
  4043ab:	49 83 f8 0f          	cmp    $0xf,%r8
  4043af:	0f 8c c0 13 00 00    	jl     405775 <main+0x2195>
  4043b5:	49 89 f2             	mov    %rsi,%r10
  4043b8:	49 83 e2 1f          	and    $0x1f,%r10
  4043bc:	49 f7 c2 07 00 00 00 	test   $0x7,%r10
  4043c3:	74 05                	je     4043ca <main+0xdea>
  4043c5:	45 33 d2             	xor    %r10d,%r10d
  4043c8:	eb 15                	jmp    4043df <main+0xdff>
  4043ca:	4c 89 d0             	mov    %r10,%rax
  4043cd:	48 f7 d8             	neg    %rax
  4043d0:	48 83 c0 20          	add    $0x20,%rax
  4043d4:	48 c1 e8 03          	shr    $0x3,%rax
  4043d8:	4d 85 d2             	test   %r10,%r10
  4043db:	4c 0f 45 d0          	cmovne %rax,%r10
  4043df:	49 8d 42 08          	lea    0x8(%r10),%rax
  4043e3:	4c 3b c0             	cmp    %rax,%r8
  4043e6:	0f 8c 82 13 00 00    	jl     40576e <main+0x218e>
  4043ec:	4c 89 c0             	mov    %r8,%rax
  4043ef:	45 33 c9             	xor    %r9d,%r9d
  4043f2:	49 2b c2             	sub    %r10,%rax
  4043f5:	48 83 e0 07          	and    $0x7,%rax
  4043f9:	48 f7 d8             	neg    %rax
  4043fc:	49 03 c0             	add    %r8,%rax
  4043ff:	49 83 fa 01          	cmp    $0x1,%r10
  404403:	72 10                	jb     404415 <main+0xe35>
  404405:	4a 89 0c ce          	mov    %rcx,(%rsi,%r9,8)
  404409:	49 ff c1             	inc    %r9
  40440c:	48 83 c1 08          	add    $0x8,%rcx
  404410:	4d 3b ca             	cmp    %r10,%r9
  404413:	72 f0                	jb     404405 <main+0xe25>
  404415:	62 f2 fd 28 7c c9    	vpbroadcastq %rcx,%ymm1
  40441b:	4c 8d 49 20          	lea    0x20(%rcx),%r9
  40441f:	62 d2 fd 28 7c c1    	vpbroadcastq %r9,%ymm0
  404425:	c5 fe 6f 15 13 cf 01 	vmovdqu 0x1cf13(%rip),%ymm2        # 421340 <_IO_stdin_used+0x340>
  40442c:	00 
  40442d:	c5 f5 d4 0d 2b cf 01 	vpaddq 0x1cf2b(%rip),%ymm1,%ymm1        # 421360 <_IO_stdin_used+0x360>
  404434:	00 
  404435:	c5 fd d4 05 23 cf 01 	vpaddq 0x1cf23(%rip),%ymm0,%ymm0        # 421360 <_IO_stdin_used+0x360>
  40443c:	00 
  40443d:	c4 a1 7e 7f 0c d6    	vmovdqu %ymm1,(%rsi,%r10,8)
  404443:	48 83 c1 40          	add    $0x40,%rcx
  404447:	c4 a1 7e 7f 44 d6 20 	vmovdqu %ymm0,0x20(%rsi,%r10,8)
  40444e:	c5 f5 d4 ca          	vpaddq %ymm2,%ymm1,%ymm1
  404452:	c5 fd d4 c2          	vpaddq %ymm2,%ymm0,%ymm0
  404456:	49 83 c2 08          	add    $0x8,%r10
  40445a:	4c 3b d0             	cmp    %rax,%r10
  40445d:	72 de                	jb     40443d <main+0xe5d>
  40445f:	45 33 c9             	xor    %r9d,%r9d
  404462:	4c 8d 50 01          	lea    0x1(%rax),%r10
  404466:	4d 3b d0             	cmp    %r8,%r10
  404469:	77 17                	ja     404482 <main+0xea2>
  40446b:	4c 2b c0             	sub    %rax,%r8
  40446e:	48 8d 04 c6          	lea    (%rsi,%rax,8),%rax
  404472:	4a 89 0c c8          	mov    %rcx,(%rax,%r9,8)
  404476:	49 ff c1             	inc    %r9
  404479:	48 83 c1 08          	add    $0x8,%rcx
  40447d:	4d 3b c8             	cmp    %r8,%r9
  404480:	72 f0                	jb     404472 <main+0xe92>
  404482:	8b bc 24 ac 06 00 00 	mov    0x6ac(%rsp),%edi
  404489:	48 63 94 24 f0 05 00 	movslq 0x5f0(%rsp),%rdx
  404490:	00 
  404491:	c5 f8 77             	vzeroupper 
  404494:	e8 17 ec ff ff       	callq  4030b0 <write@plt>
  404499:	41 89 c7             	mov    %eax,%r15d
  40449c:	8b 84 24 f0 05 00 00 	mov    0x5f0(%rsp),%eax
  4044a3:	44 3b f8             	cmp    %eax,%r15d
  4044a6:	0f 85 88 12 00 00    	jne    405734 <main+0x2154>
  4044ac:	48 63 c0             	movslq %eax,%rax
  4044af:	4c 03 e0             	add    %rax,%r12
  4044b2:	e8 29 ee ff ff       	callq  4032e0 <MPI_Wtime@plt>
  4044b7:	48 8b 8c 24 50 06 00 	mov    0x650(%rsp),%rcx
  4044be:	00 
  4044bf:	48 89 c8             	mov    %rcx,%rax
  4044c2:	4c 8b 84 24 48 06 00 	mov    0x648(%rsp),%r8
  4044c9:	00 
  4044ca:	49 2b c0             	sub    %r8,%rax
  4044cd:	48 c1 f8 03          	sar    $0x3,%rax
  4044d1:	c5 fb 5c 05 0f 36 02 	vsubsd 0x2360f(%rip),%xmm0,%xmm0        # 427ae8 <t0>
  4044d8:	00 
  4044d9:	62 71 ff 08 78 f8    	vcvttsd2usi %xmm0,%r15
  4044df:	4c 3b f8             	cmp    %rax,%r15
  4044e2:	73 0a                	jae    4044ee <main+0xf0e>
  4044e4:	4e 8d 0c fd 00 00 00 	lea    0x0(,%r15,8),%r9
  4044eb:	00 
  4044ec:	eb 2d                	jmp    40451b <main+0xf3b>
  4044ee:	49 8d 77 01          	lea    0x1(%r15),%rsi
  4044f2:	48 3b f0             	cmp    %rax,%rsi
  4044f5:	0f 87 af 11 00 00    	ja     4056aa <main+0x20ca>
  4044fb:	4e 8d 0c fd 00 00 00 	lea    0x0(,%r15,8),%r9
  404502:	00 
  404503:	73 16                	jae    40451b <main+0xf3b>
  404505:	4b 8d 44 f8 08       	lea    0x8(%r8,%r15,8),%rax
  40450a:	48 2b c8             	sub    %rax,%rcx
  40450d:	48 c1 f9 03          	sar    $0x3,%rcx
  404511:	74 08                	je     40451b <main+0xf3b>
  404513:	48 89 84 24 50 06 00 	mov    %rax,0x650(%rsp)
  40451a:	00 
  40451b:	48 63 84 24 40 06 00 	movslq 0x640(%rsp),%rax
  404522:	00 
  404523:	48 63 8c 24 f0 05 00 	movslq 0x5f0(%rsp),%rcx
  40452a:	00 
  40452b:	4c 03 e9             	add    %rcx,%r13
  40452e:	4b 01 04 08          	add    %rax,(%r8,%r9,1)
  404532:	4c 3b ac 24 f8 05 00 	cmp    0x5f8(%rsp),%r13
  404539:	00 
  40453a:	0f 8c 25 fe ff ff    	jl     404365 <main+0xd85>
  404540:	8b bc 24 ac 06 00 00 	mov    0x6ac(%rsp),%edi
  404547:	33 c0                	xor    %eax,%eax
  404549:	e8 62 ef ff ff       	callq  4034b0 <close@plt>
  40454e:	33 f6                	xor    %esi,%esi
  404550:	33 c0                	xor    %eax,%eax
  404552:	48 8b bc 24 98 06 00 	mov    0x698(%rsp),%rdi
  404559:	00 
  40455a:	e8 51 ec ff ff       	callq  4031b0 <open@plt>
  40455f:	89 84 24 ac 06 00 00 	mov    %eax,0x6ac(%rsp)
  404566:	85 c0                	test   %eax,%eax
  404568:	0f 8c 02 10 00 00    	jl     405570 <main+0x1f90>
  40456e:	45 33 ed             	xor    %r13d,%r13d
  404571:	48 83 bc 24 f8 05 00 	cmpq   $0x0,0x5f8(%rsp)
  404578:	00 00 
  40457a:	0f 8e 0a 02 00 00    	jle    40478a <main+0x11aa>
  404580:	e8 5b ed ff ff       	callq  4032e0 <MPI_Wtime@plt>
  404585:	c5 fb 5c 05 5b 35 02 	vsubsd 0x2355b(%rip),%xmm0,%xmm0        # 427ae8 <t0>
  40458c:	00 
  40458d:	c5 f9 2f 84 24 e8 05 	vcomisd 0x5e8(%rsp),%xmm0
  404594:	00 00 
  404596:	0f 87 76 0f 00 00    	ja     405512 <main+0x1f32>
  40459c:	48 8b 8c 24 28 06 00 	mov    0x628(%rsp),%rcx
  4045a3:	00 
  4045a4:	4c 89 ee             	mov    %r13,%rsi
  4045a7:	4c 8b 84 24 30 06 00 	mov    0x630(%rsp),%r8
  4045ae:	00 
  4045af:	4c 2b c1             	sub    %rcx,%r8
  4045b2:	49 c1 f8 03          	sar    $0x3,%r8
  4045b6:	0f 84 e1 00 00 00    	je     40469d <main+0x10bd>
  4045bc:	49 83 f8 08          	cmp    $0x8,%r8
  4045c0:	0f 8c 94 0f 00 00    	jl     40555a <main+0x1f7a>
  4045c6:	49 83 f8 0f          	cmp    $0xf,%r8
  4045ca:	0f 8c 91 0f 00 00    	jl     405561 <main+0x1f81>
  4045d0:	49 89 ca             	mov    %rcx,%r10
  4045d3:	49 83 e2 1f          	and    $0x1f,%r10
  4045d7:	49 f7 c2 07 00 00 00 	test   $0x7,%r10
  4045de:	74 05                	je     4045e5 <main+0x1005>
  4045e0:	45 33 d2             	xor    %r10d,%r10d
  4045e3:	eb 15                	jmp    4045fa <main+0x101a>
  4045e5:	4c 89 d0             	mov    %r10,%rax
  4045e8:	48 f7 d8             	neg    %rax
  4045eb:	48 83 c0 20          	add    $0x20,%rax
  4045ef:	48 c1 e8 03          	shr    $0x3,%rax
  4045f3:	4d 85 d2             	test   %r10,%r10
  4045f6:	4c 0f 45 d0          	cmovne %rax,%r10
  4045fa:	49 8d 42 08          	lea    0x8(%r10),%rax
  4045fe:	4c 3b c0             	cmp    %rax,%r8
  404601:	0f 8c 53 0f 00 00    	jl     40555a <main+0x1f7a>
  404607:	4c 89 c0             	mov    %r8,%rax
  40460a:	45 33 c9             	xor    %r9d,%r9d
  40460d:	49 2b c2             	sub    %r10,%rax
  404610:	48 83 e0 07          	and    $0x7,%rax
  404614:	48 f7 d8             	neg    %rax
  404617:	49 03 c0             	add    %r8,%rax
  40461a:	49 83 fa 01          	cmp    $0x1,%r10
  40461e:	72 10                	jb     404630 <main+0x1050>
  404620:	4a 89 34 c9          	mov    %rsi,(%rcx,%r9,8)
  404624:	49 ff c1             	inc    %r9
  404627:	48 83 c6 08          	add    $0x8,%rsi
  40462b:	4d 3b ca             	cmp    %r10,%r9
  40462e:	72 f0                	jb     404620 <main+0x1040>
  404630:	62 f2 fd 28 7c ce    	vpbroadcastq %rsi,%ymm1
  404636:	4c 8d 4e 20          	lea    0x20(%rsi),%r9
  40463a:	62 d2 fd 28 7c c1    	vpbroadcastq %r9,%ymm0
  404640:	c5 fe 6f 15 f8 cc 01 	vmovdqu 0x1ccf8(%rip),%ymm2        # 421340 <_IO_stdin_used+0x340>
  404647:	00 
  404648:	c5 f5 d4 0d 10 cd 01 	vpaddq 0x1cd10(%rip),%ymm1,%ymm1        # 421360 <_IO_stdin_used+0x360>
  40464f:	00 
  404650:	c5 fd d4 05 08 cd 01 	vpaddq 0x1cd08(%rip),%ymm0,%ymm0        # 421360 <_IO_stdin_used+0x360>
  404657:	00 
  404658:	c4 a1 7e 7f 0c d1    	vmovdqu %ymm1,(%rcx,%r10,8)
  40465e:	48 83 c6 40          	add    $0x40,%rsi
  404662:	c4 a1 7e 7f 44 d1 20 	vmovdqu %ymm0,0x20(%rcx,%r10,8)
  404669:	c5 f5 d4 ca          	vpaddq %ymm2,%ymm1,%ymm1
  40466d:	c5 fd d4 c2          	vpaddq %ymm2,%ymm0,%ymm0
  404671:	49 83 c2 08          	add    $0x8,%r10
  404675:	4c 3b d0             	cmp    %rax,%r10
  404678:	72 de                	jb     404658 <main+0x1078>
  40467a:	45 33 c9             	xor    %r9d,%r9d
  40467d:	4c 8d 50 01          	lea    0x1(%rax),%r10
  404681:	4d 3b d0             	cmp    %r8,%r10
  404684:	77 17                	ja     40469d <main+0x10bd>
  404686:	4c 2b c0             	sub    %rax,%r8
  404689:	48 8d 0c c1          	lea    (%rcx,%rax,8),%rcx
  40468d:	4a 89 34 c9          	mov    %rsi,(%rcx,%r9,8)
  404691:	49 ff c1             	inc    %r9
  404694:	48 83 c6 08          	add    $0x8,%rsi
  404698:	4d 3b c8             	cmp    %r8,%r9
  40469b:	72 f0                	jb     40468d <main+0x10ad>
  40469d:	8b bc 24 ac 06 00 00 	mov    0x6ac(%rsp),%edi
  4046a4:	48 8b b4 24 60 06 00 	mov    0x660(%rsp),%rsi
  4046ab:	00 
  4046ac:	48 63 94 24 f0 05 00 	movslq 0x5f0(%rsp),%rdx
  4046b3:	00 
  4046b4:	c5 f8 77             	vzeroupper 
  4046b7:	e8 a4 ec ff ff       	callq  403360 <read@plt>
  4046bc:	41 89 c7             	mov    %eax,%r15d
  4046bf:	8b 94 24 f0 05 00 00 	mov    0x5f0(%rsp),%edx
  4046c6:	44 3b fa             	cmp    %edx,%r15d
  4046c9:	0f 85 51 0e 00 00    	jne    405520 <main+0x1f40>
  4046cf:	4c 63 fa             	movslq %edx,%r15
  4046d2:	4c 89 fa             	mov    %r15,%rdx
  4046d5:	48 8b bc 24 28 06 00 	mov    0x628(%rsp),%rdi
  4046dc:	00 
  4046dd:	48 8b b4 24 60 06 00 	mov    0x660(%rsp),%rsi
  4046e4:	00 
  4046e5:	e8 46 20 00 00       	callq  406730 <_intel_fast_memcmp>
  4046ea:	85 c0                	test   %eax,%eax
  4046ec:	0f 85 fb 0d 00 00    	jne    4054ed <main+0x1f0d>
  4046f2:	4d 03 e7             	add    %r15,%r12
  4046f5:	e8 e6 eb ff ff       	callq  4032e0 <MPI_Wtime@plt>
  4046fa:	48 8b 8c 24 50 06 00 	mov    0x650(%rsp),%rcx
  404701:	00 
  404702:	48 89 c8             	mov    %rcx,%rax
  404705:	4c 8b 84 24 48 06 00 	mov    0x648(%rsp),%r8
  40470c:	00 
  40470d:	49 2b c0             	sub    %r8,%rax
  404710:	48 c1 f8 03          	sar    $0x3,%rax
  404714:	c5 fb 5c 05 cc 33 02 	vsubsd 0x233cc(%rip),%xmm0,%xmm0        # 427ae8 <t0>
  40471b:	00 
  40471c:	62 71 ff 08 78 f8    	vcvttsd2usi %xmm0,%r15
  404722:	4c 3b f8             	cmp    %rax,%r15
  404725:	73 0a                	jae    404731 <main+0x1151>
  404727:	4e 8d 0c fd 00 00 00 	lea    0x0(,%r15,8),%r9
  40472e:	00 
  40472f:	eb 2d                	jmp    40475e <main+0x117e>
  404731:	49 8d 77 01          	lea    0x1(%r15),%rsi
  404735:	48 3b f0             	cmp    %rax,%rsi
  404738:	0f 87 8a 0d 00 00    	ja     4054c8 <main+0x1ee8>
  40473e:	4e 8d 0c fd 00 00 00 	lea    0x0(,%r15,8),%r9
  404745:	00 
  404746:	73 16                	jae    40475e <main+0x117e>
  404748:	4b 8d 44 f8 08       	lea    0x8(%r8,%r15,8),%rax
  40474d:	48 2b c8             	sub    %rax,%rcx
  404750:	48 c1 f9 03          	sar    $0x3,%rcx
  404754:	74 08                	je     40475e <main+0x117e>
  404756:	48 89 84 24 50 06 00 	mov    %rax,0x650(%rsp)
  40475d:	00 
  40475e:	48 63 84 24 40 06 00 	movslq 0x640(%rsp),%rax
  404765:	00 
  404766:	48 63 8c 24 f0 05 00 	movslq 0x5f0(%rsp),%rcx
  40476d:	00 
  40476e:	4c 03 e9             	add    %rcx,%r13
  404771:	4b 01 04 08          	add    %rax,(%r8,%r9,1)
  404775:	4c 3b ac 24 f8 05 00 	cmp    0x5f8(%rsp),%r13
  40477c:	00 
  40477d:	0f 8c fd fd ff ff    	jl     404580 <main+0xfa0>
  404783:	8b 84 24 ac 06 00 00 	mov    0x6ac(%rsp),%eax
  40478a:	89 c7                	mov    %eax,%edi
  40478c:	33 c0                	xor    %eax,%eax
  40478e:	e8 1d ed ff ff       	callq  4034b0 <close@plt>
  404793:	be 01 00 00 00       	mov    $0x1,%esi
  404798:	33 c0                	xor    %eax,%eax
  40479a:	48 8b bc 24 98 06 00 	mov    0x698(%rsp),%rdi
  4047a1:	00 
  4047a2:	e8 09 ea ff ff       	callq  4031b0 <open@plt>
  4047a7:	89 c7                	mov    %eax,%edi
  4047a9:	89 bc 24 ac 06 00 00 	mov    %edi,0x6ac(%rsp)
  4047b0:	85 ff                	test   %edi,%edi
  4047b2:	0f 8c bd 0c 00 00    	jl     405475 <main+0x1e95>
  4047b8:	84 db                	test   %bl,%bl
  4047ba:	0f 84 90 fb ff ff    	je     404350 <main+0xd70>
  4047c0:	bf 00 00 00 44       	mov    $0x44000000,%edi
  4047c5:	e8 d6 e9 ff ff       	callq  4031a0 <MPI_Barrier@plt>
  4047ca:	e8 11 eb ff ff       	callq  4032e0 <MPI_Wtime@plt>
  4047cf:	c5 fb 11 04 24       	vmovsd %xmm0,(%rsp)
  4047d4:	4c 89 e7             	mov    %r12,%rdi
  4047d7:	48 8d b4 24 78 06 00 	lea    0x678(%rsp),%rsi
  4047de:	00 
  4047df:	48 8d 94 24 80 06 00 	lea    0x680(%rsp),%rdx
  4047e6:	00 
  4047e7:	e8 e4 12 00 00       	callq  405ad0 <_Z11gatherStatslRlRd>
  4047ec:	c5 fb 10 04 24       	vmovsd (%rsp),%xmm0
  4047f1:	c5 e9 57 d2          	vxorpd %xmm2,%xmm2,%xmm2
  4047f5:	c4 e1 eb 2a 94 24 78 	vcvtsi2sdq 0x678(%rsp),%xmm2,%xmm2
  4047fc:	06 00 00 
  4047ff:	c5 fb 5c 4c 24 08    	vsubsd 0x8(%rsp),%xmm0,%xmm1
  404805:	c5 f3 59 2d 9b cb 01 	vmulsd 0x1cb9b(%rip),%xmm1,%xmm5        # 4213a8 <_IO_stdin_used+0x3a8>
  40480c:	00 
  40480d:	48 8d b4 24 04 03 00 	lea    0x304(%rsp),%rsi
  404814:	00 
  404815:	c5 fb 10 a6 7c 03 00 	vmovsd 0x37c(%rsi),%xmm4
  40481c:	00 
  40481d:	48 c7 c7 ff ff ff ff 	mov    $0xffffffffffffffff,%rdi
  404824:	c5 eb 5e dd          	vdivsd %xmm5,%xmm2,%xmm3
  404828:	c5 db 5e f5          	vdivsd %xmm5,%xmm4,%xmm6
  40482c:	48 8b 86 4c 03 00 00 	mov    0x34c(%rsi),%rax
  404833:	ba 01 00 00 00       	mov    $0x1,%edx
  404838:	48 2b 86 44 03 00 00 	sub    0x344(%rsi),%rax
  40483f:	b9 05 04 00 4c       	mov    $0x4c000405,%ecx
  404844:	41 b8 01 00 00 58    	mov    $0x58000001,%r8d
  40484a:	41 b9 00 00 00 44    	mov    $0x44000000,%r9d
  404850:	c5 fb 11 9e 8c 03 00 	vmovsd %xmm3,0x38c(%rsi)
  404857:	00 
  404858:	c5 fb 11 b6 84 03 00 	vmovsd %xmm6,0x384(%rsi)
  40485f:	00 
  404860:	48 c1 e8 03          	shr    $0x3,%rax
  404864:	89 06                	mov    %eax,(%rsi)
  404866:	e8 65 ea ff ff       	callq  4032d0 <MPI_Allreduce@plt>
  40486b:	4c 8b bc 24 50 06 00 	mov    0x650(%rsp),%r15
  404872:	00 
  404873:	4d 89 fc             	mov    %r15,%r12
  404876:	4c 8b ac 24 48 06 00 	mov    0x648(%rsp),%r13
  40487d:	00 
  40487e:	4d 2b e5             	sub    %r13,%r12
  404881:	44 8b b4 24 04 03 00 	mov    0x304(%rsp),%r14d
  404888:	00 
  404889:	49 63 de             	movslq %r14d,%rbx
  40488c:	49 c1 fc 03          	sar    $0x3,%r12
  404890:	49 3b dc             	cmp    %r12,%rbx
  404893:	0f 82 c9 08 00 00    	jb     405162 <main+0x1b82>
  404899:	76 4a                	jbe    4048e5 <main+0x1305>
  40489b:	49 2b dc             	sub    %r12,%rbx
  40489e:	74 5d                	je     4048fd <main+0x131d>
  4048a0:	48 8b 84 24 58 06 00 	mov    0x658(%rsp),%rax
  4048a7:	00 
  4048a8:	49 2b c7             	sub    %r15,%rax
  4048ab:	48 c1 f8 03          	sar    $0x3,%rax
  4048af:	48 3b c3             	cmp    %rbx,%rax
  4048b2:	0f 82 1a 06 00 00    	jb     404ed2 <main+0x18f2>
  4048b8:	48 85 db             	test   %rbx,%rbx
  4048bb:	74 1e                	je     4048db <main+0x12fb>
  4048bd:	48 83 fb 0c          	cmp    $0xc,%rbx
  4048c1:	0f 86 b6 05 00 00    	jbe    404e7d <main+0x189d>
  4048c7:	48 c1 e3 03          	shl    $0x3,%rbx
  4048cb:	4c 89 ff             	mov    %r15,%rdi
  4048ce:	33 f6                	xor    %esi,%esi
  4048d0:	48 89 da             	mov    %rbx,%rdx
  4048d3:	e8 f8 20 00 00       	callq  4069d0 <_intel_fast_memset>
  4048d8:	4c 03 fb             	add    %rbx,%r15
  4048db:	4c 89 bc 24 50 06 00 	mov    %r15,0x650(%rsp)
  4048e2:	00 
  4048e3:	eb 18                	jmp    4048fd <main+0x131d>
  4048e5:	73 16                	jae    4048fd <main+0x131d>
  4048e7:	49 8d 44 dd 00       	lea    0x0(%r13,%rbx,8),%rax
  4048ec:	4c 2b f8             	sub    %rax,%r15
  4048ef:	49 c1 ff 03          	sar    $0x3,%r15
  4048f3:	74 08                	je     4048fd <main+0x131d>
  4048f5:	48 89 84 24 50 06 00 	mov    %rax,0x650(%rsp)
  4048fc:	00 
  4048fd:	48 83 c4 f0          	add    $0xfffffffffffffff0,%rsp
  404901:	48 c7 c7 ff ff ff ff 	mov    $0xffffffffffffffff,%rdi
  404908:	83 3d e5 31 02 00 00 	cmpl   $0x0,0x231e5(%rip)        # 427af4 <rank>
  40490f:	4c 89 ee             	mov    %r13,%rsi
  404912:	44 89 f2             	mov    %r14d,%edx
  404915:	49 0f 45 fd          	cmovne %r13,%rdi
  404919:	b9 07 08 00 4c       	mov    $0x4c000807,%ecx
  40491e:	41 b8 03 00 00 58    	mov    $0x58000003,%r8d
  404924:	45 33 c9             	xor    %r9d,%r9d
  404927:	c7 04 24 00 00 00 44 	movl   $0x44000000,(%rsp)
  40492e:	c5 f8 77             	vzeroupper 
  404931:	e8 ca e9 ff ff       	callq  403300 <MPI_Reduce@plt>
  404936:	48 83 c4 10          	add    $0x10,%rsp
  40493a:	83 3d b3 31 02 00 00 	cmpl   $0x0,0x231b3(%rip)        # 427af4 <rank>
  404941:	0f 84 c5 00 00 00    	je     404a0c <main+0x142c>
  404947:	33 c0                	xor    %eax,%eax
  404949:	8b bc 24 ac 06 00 00 	mov    0x6ac(%rsp),%edi
  404950:	e8 5b eb ff ff       	callq  4034b0 <close@plt>
  404955:	80 bc 24 00 06 00 00 	cmpb   $0x0,0x600(%rsp)
  40495c:	00 
  40495d:	74 0d                	je     40496c <main+0x138c>
  40495f:	48 8b bc 24 98 06 00 	mov    0x698(%rsp),%rdi
  404966:	00 
  404967:	e8 14 eb ff ff       	callq  403480 <remove@plt>
  40496c:	e8 4f e8 ff ff       	callq  4031c0 <MPI_Finalize@plt>
  404971:	48 8b bc 24 28 06 00 	mov    0x628(%rsp),%rdi
  404978:	00 
  404979:	48 85 ff             	test   %rdi,%rdi
  40497c:	74 05                	je     404983 <main+0x13a3>
  40497e:	e8 ad e8 ff ff       	callq  403230 <_ZdlPv@plt>
  404983:	48 8b bc 24 60 06 00 	mov    0x660(%rsp),%rdi
  40498a:	00 
  40498b:	48 85 ff             	test   %rdi,%rdi
  40498e:	74 05                	je     404995 <main+0x13b5>
  404990:	e8 9b e8 ff ff       	callq  403230 <_ZdlPv@plt>
  404995:	48 8b bc 24 08 06 00 	mov    0x608(%rsp),%rdi
  40499c:	00 
  40499d:	48 8d 84 24 18 06 00 	lea    0x618(%rsp),%rax
  4049a4:	00 
  4049a5:	48 3b f8             	cmp    %rax,%rdi
  4049a8:	74 05                	je     4049af <main+0x13cf>
  4049aa:	e8 81 e8 ff ff       	callq  403230 <_ZdlPv@plt>
  4049af:	48 8b bc 24 48 06 00 	mov    0x648(%rsp),%rdi
  4049b6:	00 
  4049b7:	48 85 ff             	test   %rdi,%rdi
  4049ba:	74 05                	je     4049c1 <main+0x13e1>
  4049bc:	e8 6f e8 ff ff       	callq  403230 <_ZdlPv@plt>
  4049c1:	48 8b bc 24 c8 05 00 	mov    0x5c8(%rsp),%rdi
  4049c8:	00 
  4049c9:	48 8d 84 24 d8 05 00 	lea    0x5d8(%rsp),%rax
  4049d0:	00 
  4049d1:	48 3b f8             	cmp    %rax,%rdi
  4049d4:	74 05                	je     4049db <main+0x13fb>
  4049d6:	e8 55 e8 ff ff       	callq  403230 <_ZdlPv@plt>
  4049db:	48 8b bc 24 a8 05 00 	mov    0x5a8(%rsp),%rdi
  4049e2:	00 
  4049e3:	48 8d 84 24 b8 05 00 	lea    0x5b8(%rsp),%rax
  4049ea:	00 
  4049eb:	48 3b f8             	cmp    %rax,%rdi
  4049ee:	74 05                	je     4049f5 <main+0x1415>
  4049f0:	e8 3b e8 ff ff       	callq  403230 <_ZdlPv@plt>
  4049f5:	33 c0                	xor    %eax,%eax
  4049f7:	48 81 c4 d8 06 00 00 	add    $0x6d8,%rsp
  4049fe:	5b                   	pop    %rbx
  4049ff:	41 5f                	pop    %r15
  404a01:	41 5e                	pop    %r14
  404a03:	41 5d                	pop    %r13
  404a05:	41 5c                	pop    %r12
  404a07:	48 89 ec             	mov    %rbp,%rsp
  404a0a:	5d                   	pop    %rbp
  404a0b:	c3                   	retq   
  404a0c:	48 c7 84 24 30 05 00 	movq   $0x0,0x530(%rsp)
  404a13:	00 00 00 00 00 
  404a18:	48 8d 84 24 38 05 00 	lea    0x538(%rsp),%rax
  404a1f:	00 
  404a20:	48 89 40 f0          	mov    %rax,-0x10(%rax)
  404a24:	c6 00 00             	movb   $0x0,(%rax)
  404a27:	48 83 78 78 00       	cmpq   $0x0,0x78(%rax)
  404a2c:	0f 86 b8 01 00 00    	jbe    404bea <main+0x160a>
  404a32:	48 c7 84 24 88 04 00 	movq   $0x0,0x488(%rsp)
  404a39:	00 00 00 00 00 
  404a3e:	48 8d 84 24 90 04 00 	lea    0x490(%rsp),%rax
  404a45:	00 
  404a46:	48 89 40 f0          	mov    %rax,-0x10(%rax)
  404a4a:	48 8d bc 24 80 04 00 	lea    0x480(%rsp),%rdi
  404a51:	00 
  404a52:	c6 00 00             	movb   $0x0,(%rax)
  404a55:	48 8b b0 20 01 00 00 	mov    0x120(%rax),%rsi
  404a5c:	48 ff c6             	inc    %rsi
  404a5f:	e8 6c e9 ff ff       	callq  4033d0 <_ZNSt7__cxx1112basic_stringIcSt11char_traitsIcESaIcEE7reserveEm@plt>
  404a64:	48 b8 ff ff ff ff ff 	movabs $0x7fffffffffffffff,%rax
  404a6b:	ff ff 7f 
  404a6e:	48 2b 84 24 88 04 00 	sub    0x488(%rsp),%rax
  404a75:	00 
  404a76:	48 83 f8 01          	cmp    $0x1,%rax
  404a7a:	0f 82 6c 06 00 00    	jb     4050ec <main+0x1b0c>
  404a80:	be 0c 11 42 00       	mov    $0x42110c,%esi
  404a85:	48 8d bc 24 80 04 00 	lea    0x480(%rsp),%rdi
  404a8c:	00 
  404a8d:	ba 01 00 00 00       	mov    $0x1,%edx
  404a92:	e8 d9 e5 ff ff       	callq  403070 <_ZNSt7__cxx1112basic_stringIcSt11char_traitsIcESaIcEE9_M_appendEPKcm@plt>
  404a97:	48 8b b4 24 a8 05 00 	mov    0x5a8(%rsp),%rsi
  404a9e:	00 
  404a9f:	48 8d bc 24 80 04 00 	lea    0x480(%rsp),%rdi
  404aa6:	00 
  404aa7:	48 8b 97 30 01 00 00 	mov    0x130(%rdi),%rdx
  404aae:	e8 bd e5 ff ff       	callq  403070 <_ZNSt7__cxx1112basic_stringIcSt11char_traitsIcESaIcEE9_M_appendEPKcm@plt>
  404ab3:	48 8b b4 24 80 04 00 	mov    0x480(%rsp),%rsi
  404aba:	00 
  404abb:	48 8d 84 24 90 04 00 	lea    0x490(%rsp),%rax
  404ac2:	00 
  404ac3:	48 3b f0             	cmp    %rax,%rsi
  404ac6:	0f 84 95 00 00 00    	je     404b61 <main+0x1581>
  404acc:	48 8b 9c 24 28 05 00 	mov    0x528(%rsp),%rbx
  404ad3:	00 
  404ad4:	48 8d 84 24 38 05 00 	lea    0x538(%rsp),%rax
  404adb:	00 
  404adc:	48 3b d8             	cmp    %rax,%rbx
  404adf:	74 4a                	je     404b2b <main+0x154b>
  404ae1:	48 8b 84 24 88 04 00 	mov    0x488(%rsp),%rax
  404ae8:	00 
  404ae9:	48 8b 94 24 90 04 00 	mov    0x490(%rsp),%rdx
  404af0:	00 
  404af1:	48 8b 8c 24 38 05 00 	mov    0x538(%rsp),%rcx
  404af8:	00 
  404af9:	48 89 b4 24 28 05 00 	mov    %rsi,0x528(%rsp)
  404b00:	00 
  404b01:	48 89 84 24 30 05 00 	mov    %rax,0x530(%rsp)
  404b08:	00 
  404b09:	48 89 94 24 38 05 00 	mov    %rdx,0x538(%rsp)
  404b10:	00 
  404b11:	48 85 db             	test   %rbx,%rbx
  404b14:	74 3d                	je     404b53 <main+0x1573>
  404b16:	48 89 8c 24 90 04 00 	mov    %rcx,0x490(%rsp)
  404b1d:	00 
  404b1e:	48 89 9c 24 80 04 00 	mov    %rbx,0x480(%rsp)
  404b25:	00 
  404b26:	e9 9a 00 00 00       	jmpq   404bc5 <main+0x15e5>
  404b2b:	48 8b 84 24 88 04 00 	mov    0x488(%rsp),%rax
  404b32:	00 
  404b33:	48 8b 94 24 90 04 00 	mov    0x490(%rsp),%rdx
  404b3a:	00 
  404b3b:	48 89 b4 24 28 05 00 	mov    %rsi,0x528(%rsp)
  404b42:	00 
  404b43:	48 89 84 24 30 05 00 	mov    %rax,0x530(%rsp)
  404b4a:	00 
  404b4b:	48 89 94 24 38 05 00 	mov    %rdx,0x538(%rsp)
  404b52:	00 
  404b53:	48 8d 9c 24 90 04 00 	lea    0x490(%rsp),%rbx
  404b5a:	00 
  404b5b:	48 89 5b f0          	mov    %rbx,-0x10(%rbx)
  404b5f:	eb 64                	jmp    404bc5 <main+0x15e5>
  404b61:	48 8b 94 24 88 04 00 	mov    0x488(%rsp),%rdx
  404b68:	00 
  404b69:	48 85 d2             	test   %rdx,%rdx
  404b6c:	75 0a                	jne    404b78 <main+0x1598>
  404b6e:	48 8b 84 24 28 05 00 	mov    0x528(%rsp),%rax
  404b75:	00 
  404b76:	eb 39                	jmp    404bb1 <main+0x15d1>
  404b78:	48 8b bc 24 28 05 00 	mov    0x528(%rsp),%rdi
  404b7f:	00 
  404b80:	48 83 fa 01          	cmp    $0x1,%rdx
  404b84:	75 16                	jne    404b9c <main+0x15bc>
  404b86:	8a 06                	mov    (%rsi),%al
  404b88:	88 07                	mov    %al,(%rdi)
  404b8a:	48 8b 84 24 28 05 00 	mov    0x528(%rsp),%rax
  404b91:	00 
  404b92:	48 8b 94 24 88 04 00 	mov    0x488(%rsp),%rdx
  404b99:	00 
  404b9a:	eb 15                	jmp    404bb1 <main+0x15d1>
  404b9c:	e8 7f 1c 00 00       	callq  406820 <_intel_fast_memcpy>
  404ba1:	48 8b 84 24 28 05 00 	mov    0x528(%rsp),%rax
  404ba8:	00 
  404ba9:	48 8b 94 24 88 04 00 	mov    0x488(%rsp),%rdx
  404bb0:	00 
  404bb1:	48 89 94 24 30 05 00 	mov    %rdx,0x530(%rsp)
  404bb8:	00 
  404bb9:	c6 04 10 00          	movb   $0x0,(%rax,%rdx,1)
  404bbd:	48 8b 9c 24 80 04 00 	mov    0x480(%rsp),%rbx
  404bc4:	00 
  404bc5:	48 c7 84 24 88 04 00 	movq   $0x0,0x488(%rsp)
  404bcc:	00 00 00 00 00 
  404bd1:	48 8d 84 24 90 04 00 	lea    0x490(%rsp),%rax
  404bd8:	00 
  404bd9:	c6 03 00             	movb   $0x0,(%rbx)
  404bdc:	48 8b 78 f0          	mov    -0x10(%rax),%rdi
  404be0:	48 3b f8             	cmp    %rax,%rdi
  404be3:	74 05                	je     404bea <main+0x160a>
  404be5:	e8 46 e6 ff ff       	callq  403230 <_ZdlPv@plt>
  404bea:	c5 fd ef c0          	vpxor  %ymm0,%ymm0,%ymm0
  404bee:	c5 fe 7f 84 24 a0 02 	vmovdqu %ymm0,0x2a0(%rsp)
  404bf5:	00 00 
  404bf7:	c5 fe 7f 84 24 c0 02 	vmovdqu %ymm0,0x2c0(%rsp)
  404bfe:	00 00 
  404c00:	c5 fe 7f 84 24 e0 02 	vmovdqu %ymm0,0x2e0(%rsp)
  404c07:	00 00 
  404c09:	c7 84 24 00 03 00 00 	movl   $0x0,0x300(%rsp)
  404c10:	00 00 00 00 
  404c14:	bf 38 11 42 00       	mov    $0x421138,%edi
  404c19:	c5 f8 77             	vzeroupper 
  404c1c:	e8 9f e6 ff ff       	callq  4032c0 <getenv@plt>
  404c21:	48 89 c3             	mov    %rax,%rbx
  404c24:	48 85 db             	test   %rbx,%rbx
  404c27:	74 4e                	je     404c77 <main+0x1697>
  404c29:	48 89 da             	mov    %rbx,%rdx
  404c2c:	48 89 d1             	mov    %rdx,%rcx
  404c2f:	48 83 e2 f0          	and    $0xfffffffffffffff0,%rdx
  404c33:	c5 f9 ef c0          	vpxor  %xmm0,%xmm0,%xmm0
  404c37:	c5 f9 74 02          	vpcmpeqb (%rdx),%xmm0,%xmm0
  404c3b:	c5 f9 d7 c0          	vpmovmskb %xmm0,%eax
  404c3f:	83 e1 0f             	and    $0xf,%ecx
  404c42:	d3 e8                	shr    %cl,%eax
  404c44:	0f bc c0             	bsf    %eax,%eax
  404c47:	75 0c                	jne    404c55 <main+0x1675>
  404c49:	48 89 d0             	mov    %rdx,%rax
  404c4c:	48 03 d1             	add    %rcx,%rdx
  404c4f:	ff 15 5b 23 02 00    	callq  *0x2235b(%rip)        # 426fb0 <.got+0x10>
  404c55:	48 83 f8 32          	cmp    $0x32,%rax
  404c59:	73 1c                	jae    404c77 <main+0x1697>
  404c5b:	be 64 00 00 00       	mov    $0x64,%esi
  404c60:	48 8d bc 24 a0 02 00 	lea    0x2a0(%rsp),%rdi
  404c67:	00 
  404c68:	ba 44 11 42 00       	mov    $0x421144,%edx
  404c6d:	48 89 d9             	mov    %rbx,%rcx
  404c70:	33 c0                	xor    %eax,%eax
  404c72:	e8 89 e7 ff ff       	callq  403400 <snprintf@plt>
  404c77:	33 f6                	xor    %esi,%esi
  404c79:	48 8d bc 24 48 05 00 	lea    0x548(%rsp),%rdi
  404c80:	00 
  404c81:	4c 8b 77 e0          	mov    -0x20(%rdi),%r14
  404c85:	e8 46 0d 00 00       	callq  4059d0 <_Z9timestampB5cxx11i..0>
  404c8a:	4c 8b ac 24 48 05 00 	mov    0x548(%rsp),%r13
  404c91:	00 
  404c92:	e8 69 e4 ff ff       	callq  403100 <getuid@plt>
  404c97:	41 89 c4             	mov    %eax,%r12d
  404c9a:	48 8b 1d df 1f 02 00 	mov    0x21fdf(%rip),%rbx        # 426c80 <_ZTTNSt7__cxx1119basic_ostringstreamIcSt11char_traitsIcESaIcEEE@@GLIBCXX_3.4.21>
  404ca1:	48 8d bc 24 78 03 00 	lea    0x378(%rsp),%rdi
  404ca8:	00 
  404ca9:	48 89 5f 90          	mov    %rbx,-0x70(%rdi)
  404cad:	e8 ae e3 ff ff       	callq  403060 <_ZNSt8ios_baseC2Ev@plt>
  404cb2:	33 c9                	xor    %ecx,%ecx
  404cb4:	33 c0                	xor    %eax,%eax
  404cb6:	48 c7 84 24 78 03 00 	movq   $0x426bf0,0x378(%rsp)
  404cbd:	00 f0 6b 42 00 
  404cc2:	48 89 8c 24 50 04 00 	mov    %rcx,0x450(%rsp)
  404cc9:	00 
  404cca:	88 84 24 58 04 00 00 	mov    %al,0x458(%rsp)
  404cd1:	88 84 24 59 04 00 00 	mov    %al,0x459(%rsp)
  404cd8:	48 89 8c 24 60 04 00 	mov    %rcx,0x460(%rsp)
  404cdf:	00 
  404ce0:	48 89 8c 24 68 04 00 	mov    %rcx,0x468(%rsp)
  404ce7:	00 
  404ce8:	48 89 8c 24 70 04 00 	mov    %rcx,0x470(%rsp)
  404cef:	00 
  404cf0:	48 89 8c 24 78 04 00 	mov    %rcx,0x478(%rsp)
  404cf7:	00 
  404cf8:	48 8b 05 89 1f 02 00 	mov    0x21f89(%rip),%rax        # 426c88 <_ZTTNSt7__cxx1119basic_ostringstreamIcSt11char_traitsIcESaIcEEE@@GLIBCXX_3.4.21+0x8>
  404cff:	33 f6                	xor    %esi,%esi
  404d01:	48 8b 0d 88 1f 02 00 	mov    0x21f88(%rip),%rcx        # 426c90 <_ZTTNSt7__cxx1119basic_ostringstreamIcSt11char_traitsIcESaIcEEE@@GLIBCXX_3.4.21+0x10>
  404d08:	48 89 84 24 08 03 00 	mov    %rax,0x308(%rsp)
  404d0f:	00 
  404d10:	4c 8b 40 e8          	mov    -0x18(%rax),%r8
  404d14:	4a 89 8c 04 08 03 00 	mov    %rcx,0x308(%rsp,%r8,1)
  404d1b:	00 
  404d1c:	4c 8b 8c 24 08 03 00 	mov    0x308(%rsp),%r9
  404d23:	00 
  404d24:	4d 8b 51 e8          	mov    -0x18(%r9),%r10
  404d28:	4a 8d bc 14 08 03 00 	lea    0x308(%rsp,%r10,1),%rdi
  404d2f:	00 
  404d30:	e8 db e5 ff ff       	callq  403310 <_ZNSt9basic_iosIcSt11char_traitsIcEE4initEPSt15basic_streambufIcS1_E@plt>
  404d35:	48 8b 4b e8          	mov    -0x18(%rbx),%rcx
  404d39:	48 8d bc 24 48 03 00 	lea    0x348(%rsp),%rdi
  404d40:	00 
  404d41:	48 8b 05 50 1f 02 00 	mov    0x21f50(%rip),%rax        # 426c98 <_ZTTNSt7__cxx1119basic_ostringstreamIcSt11char_traitsIcESaIcEEE@@GLIBCXX_3.4.21+0x18>
  404d48:	48 89 5f c0          	mov    %rbx,-0x40(%rdi)
  404d4c:	33 db                	xor    %ebx,%ebx
  404d4e:	48 89 84 0c 08 03 00 	mov    %rax,0x308(%rsp,%rcx,1)
  404d55:	00 
  404d56:	48 c7 47 c8 10 6c 42 	movq   $0x426c10,-0x38(%rdi)
  404d5d:	00 
  404d5e:	48 89 5f d0          	mov    %rbx,-0x30(%rdi)
  404d62:	48 89 5f d8          	mov    %rbx,-0x28(%rdi)
  404d66:	48 89 5f e0          	mov    %rbx,-0x20(%rdi)
  404d6a:	48 89 5f e8          	mov    %rbx,-0x18(%rdi)
  404d6e:	48 89 5f f0          	mov    %rbx,-0x10(%rdi)
  404d72:	48 89 5f f8          	mov    %rbx,-0x8(%rdi)
  404d76:	e8 55 e7 ff ff       	callq  4034d0 <_ZNSt6localeC1Ev@plt>
  404d7b:	48 c7 84 24 10 03 00 	movq   $0x426cb0,0x310(%rsp)
  404d82:	00 b0 6c 42 00 
  404d87:	48 8d 84 24 68 03 00 	lea    0x368(%rsp),%rax
  404d8e:	00 
  404d8f:	c7 40 e8 10 00 00 00 	movl   $0x10,-0x18(%rax)
  404d96:	48 8d b4 24 10 03 00 	lea    0x310(%rsp),%rsi
  404d9d:	00 
  404d9e:	48 c7 40 f8 00 00 00 	movq   $0x0,-0x8(%rax)
  404da5:	00 
  404da6:	48 89 40 f0          	mov    %rax,-0x10(%rax)
  404daa:	c6 00 00             	movb   $0x0,(%rax)
  404dad:	48 8b 48 a0          	mov    -0x60(%rax),%rcx
  404db1:	48 8b 59 e8          	mov    -0x18(%rcx),%rbx
  404db5:	48 8d bc 1c 08 03 00 	lea    0x308(%rsp,%rbx,1),%rdi
  404dbc:	00 
  404dbd:	e8 4e e5 ff ff       	callq  403310 <_ZNSt9basic_iosIcSt11char_traitsIcEE4initEPSt15basic_streambufIcS1_E@plt>
  404dc2:	be 50 11 42 00       	mov    $0x421150,%esi
  404dc7:	48 8d bc 24 08 03 00 	lea    0x308(%rsp),%rdi
  404dce:	00 
  404dcf:	e8 6c e4 ff ff       	callq  403240 <_ZStlsISt11char_traitsIcEERSt13basic_ostreamIcT_ES5_PKc@plt>
  404dd4:	48 8b 84 24 50 06 00 	mov    0x650(%rsp),%rax
  404ddb:	00 
  404ddc:	33 db                	xor    %ebx,%ebx
  404dde:	48 8b 8c 24 48 06 00 	mov    0x648(%rsp),%rcx
  404de5:	00 
  404de6:	48 2b c1             	sub    %rcx,%rax
  404de9:	48 c1 f8 03          	sar    $0x3,%rax
  404ded:	0f 84 37 04 00 00    	je     40522a <main+0x1c4a>
  404df3:	c5 f9 57 c0          	vxorpd %xmm0,%xmm0,%xmm0
  404df7:	48 8d bc 24 08 03 00 	lea    0x308(%rsp),%rdi
  404dfe:	00 
  404dff:	c4 e1 fb 2a 04 d9    	vcvtsi2sdq (%rcx,%rbx,8),%xmm0,%xmm0
  404e05:	c5 fb 59 0d a3 c5 01 	vmulsd 0x1c5a3(%rip),%xmm0,%xmm1        # 4213b0 <_IO_stdin_used+0x3b0>
  404e0c:	00 
  404e0d:	be 00 63 40 00       	mov    $0x406300,%esi
  404e12:	c5 fb 11 0c 24       	vmovsd %xmm1,(%rsp)
  404e17:	e8 84 e2 ff ff       	callq  4030a0 <_ZNSolsEPFRSt8ios_baseS0_E@plt>
  404e1c:	48 89 c7             	mov    %rax,%rdi
  404e1f:	be 01 00 00 00       	mov    $0x1,%esi
  404e24:	e8 b7 e5 ff ff       	callq  4033e0 <_ZStlsIcSt11char_traitsIcEERSt13basic_ostreamIT_T0_ES6_St13_Setprecision@plt>
  404e29:	48 89 c7             	mov    %rax,%rdi
  404e2c:	c5 fb 10 04 24       	vmovsd (%rsp),%xmm0
  404e31:	e8 6a e6 ff ff       	callq  4034a0 <_ZNSolsEd@plt>
  404e36:	48 8b 84 24 50 06 00 	mov    0x650(%rsp),%rax
  404e3d:	00 
  404e3e:	48 ff c3             	inc    %rbx
  404e41:	48 8b 8c 24 48 06 00 	mov    0x648(%rsp),%rcx
  404e48:	00 
  404e49:	48 2b c1             	sub    %rcx,%rax
  404e4c:	48 c1 f8 03          	sar    $0x3,%rax
  404e50:	48 3b d8             	cmp    %rax,%rbx
  404e53:	0f 83 d1 03 00 00    	jae    40522a <main+0x1c4a>
  404e59:	48 85 db             	test   %rbx,%rbx
  404e5c:	74 95                	je     404df3 <main+0x1813>
  404e5e:	be 54 11 42 00       	mov    $0x421154,%esi
  404e63:	48 8d bc 24 08 03 00 	lea    0x308(%rsp),%rdi
  404e6a:	00 
  404e6b:	e8 d0 e3 ff ff       	callq  403240 <_ZStlsISt11char_traitsIcEERSt13basic_ostreamIcT_ES5_PKc@plt>
  404e70:	48 8b 8c 24 48 06 00 	mov    0x648(%rsp),%rcx
  404e77:	00 
  404e78:	e9 76 ff ff ff       	jmpq   404df3 <main+0x1813>
  404e7d:	48 83 fb 04          	cmp    $0x4,%rbx
  404e81:	72 4b                	jb     404ece <main+0x18ee>
  404e83:	48 89 d8             	mov    %rbx,%rax
  404e86:	33 c9                	xor    %ecx,%ecx
  404e88:	c5 fd ef c0          	vpxor  %ymm0,%ymm0,%ymm0
  404e8c:	48 83 e0 fc          	and    $0xfffffffffffffffc,%rax
  404e90:	c4 c1 7e 7f 04 cf    	vmovdqu %ymm0,(%r15,%rcx,8)
  404e96:	48 83 c1 04          	add    $0x4,%rcx
  404e9a:	48 3b c8             	cmp    %rax,%rcx
  404e9d:	72 f1                	jb     404e90 <main+0x18b0>
  404e9f:	45 33 c0             	xor    %r8d,%r8d
  404ea2:	48 8d 48 01          	lea    0x1(%rax),%rcx
  404ea6:	48 3b cb             	cmp    %rbx,%rcx
  404ea9:	77 1a                	ja     404ec5 <main+0x18e5>
  404eab:	49 8d 0c c7          	lea    (%r15,%rax,8),%rcx
  404eaf:	48 f7 d8             	neg    %rax
  404eb2:	48 03 c3             	add    %rbx,%rax
  404eb5:	4a c7 04 c1 00 00 00 	movq   $0x0,(%rcx,%r8,8)
  404ebc:	00 
  404ebd:	49 ff c0             	inc    %r8
  404ec0:	4c 3b c0             	cmp    %rax,%r8
  404ec3:	72 f0                	jb     404eb5 <main+0x18d5>
  404ec5:	48 c1 e3 03          	shl    $0x3,%rbx
  404ec9:	e9 0a fa ff ff       	jmpq   4048d8 <main+0x12f8>
  404ece:	33 c0                	xor    %eax,%eax
  404ed0:	eb cd                	jmp    404e9f <main+0x18bf>
  404ed2:	48 b8 ff ff ff ff ff 	movabs $0x1fffffffffffffff,%rax
  404ed9:	ff ff 1f 
  404edc:	49 2b c4             	sub    %r12,%rax
  404edf:	48 3b c3             	cmp    %rbx,%rax
  404ee2:	0f 82 70 02 00 00    	jb     405158 <main+0x1b78>
  404ee8:	49 3b dc             	cmp    %r12,%rbx
  404eeb:	4d 89 e6             	mov    %r12,%r14
  404eee:	4c 0f 47 f3          	cmova  %rbx,%r14
  404ef2:	4d 03 f4             	add    %r12,%r14
  404ef5:	4d 3b f4             	cmp    %r12,%r14
  404ef8:	72 0f                	jb     404f09 <main+0x1929>
  404efa:	48 b8 ff ff ff ff ff 	movabs $0x1fffffffffffffff,%rax
  404f01:	ff ff 1f 
  404f04:	4c 3b f0             	cmp    %rax,%r14
  404f07:	76 0a                	jbe    404f13 <main+0x1933>
  404f09:	49 be ff ff ff ff ff 	movabs $0x1fffffffffffffff,%r14
  404f10:	ff ff 1f 
  404f13:	4d 85 f6             	test   %r14,%r14
  404f16:	0f 85 46 01 00 00    	jne    405062 <main+0x1a82>
  404f1c:	33 c0                	xor    %eax,%eax
  404f1e:	45 33 f6             	xor    %r14d,%r14d
  404f21:	4a 8d 3c e0          	lea    (%rax,%r12,8),%rdi
  404f25:	48 85 db             	test   %rbx,%rbx
  404f28:	74 24                	je     404f4e <main+0x196e>
  404f2a:	48 83 fb 0c          	cmp    $0xc,%rbx
  404f2e:	0f 86 d8 00 00 00    	jbe    40500c <main+0x1a2c>
  404f34:	48 c1 e3 03          	shl    $0x3,%rbx
  404f38:	33 f6                	xor    %esi,%esi
  404f3a:	48 89 da             	mov    %rbx,%rdx
  404f3d:	48 89 44 24 08       	mov    %rax,0x8(%rsp)
  404f42:	e8 89 1a 00 00       	callq  4069d0 <_intel_fast_memset>
  404f47:	48 8b 44 24 08       	mov    0x8(%rsp),%rax
  404f4c:	eb 04                	jmp    404f52 <main+0x1972>
  404f4e:	48 c1 e3 03          	shl    $0x3,%rbx
  404f52:	4c 89 f9             	mov    %r15,%rcx
  404f55:	49 2b cd             	sub    %r13,%rcx
  404f58:	48 c1 f9 03          	sar    $0x3,%rcx
  404f5c:	74 28                	je     404f86 <main+0x19a6>
  404f5e:	48 89 c7             	mov    %rax,%rdi
  404f61:	48 8d 14 cd 00 00 00 	lea    0x0(,%rcx,8),%rdx
  404f68:	00 
  404f69:	4c 89 ee             	mov    %r13,%rsi
  404f6c:	48 89 0c 24          	mov    %rcx,(%rsp)
  404f70:	48 89 44 24 08       	mov    %rax,0x8(%rsp)
  404f75:	c5 f8 77             	vzeroupper 
  404f78:	e8 93 19 00 00       	callq  406910 <_intel_fast_memmove>
  404f7d:	48 8b 44 24 08       	mov    0x8(%rsp),%rax
  404f82:	48 8b 0c 24          	mov    (%rsp),%rcx
  404f86:	48 03 d8             	add    %rax,%rbx
  404f89:	4c 8d 24 cb          	lea    (%rbx,%rcx,8),%r12
  404f8d:	48 8b 9c 24 50 06 00 	mov    0x650(%rsp),%rbx
  404f94:	00 
  404f95:	49 2b df             	sub    %r15,%rbx
  404f98:	48 c1 fb 03          	sar    $0x3,%rbx
  404f9c:	74 20                	je     404fbe <main+0x19de>
  404f9e:	4c 89 e7             	mov    %r12,%rdi
  404fa1:	48 8d 14 dd 00 00 00 	lea    0x0(,%rbx,8),%rdx
  404fa8:	00 
  404fa9:	4c 89 fe             	mov    %r15,%rsi
  404fac:	48 89 44 24 08       	mov    %rax,0x8(%rsp)
  404fb1:	c5 f8 77             	vzeroupper 
  404fb4:	e8 57 19 00 00       	callq  406910 <_intel_fast_memmove>
  404fb9:	48 8b 44 24 08       	mov    0x8(%rsp),%rax
  404fbe:	48 8b bc 24 48 06 00 	mov    0x648(%rsp),%rdi
  404fc5:	00 
  404fc6:	48 85 ff             	test   %rdi,%rdi
  404fc9:	74 12                	je     404fdd <main+0x19fd>
  404fcb:	c5 f8 77             	vzeroupper 
  404fce:	48 89 44 24 08       	mov    %rax,0x8(%rsp)
  404fd3:	e8 58 e2 ff ff       	callq  403230 <_ZdlPv@plt>
  404fd8:	48 8b 44 24 08       	mov    0x8(%rsp),%rax
  404fdd:	4c 03 f0             	add    %rax,%r14
  404fe0:	49 8d 14 dc          	lea    (%r12,%rbx,8),%rdx
  404fe4:	4c 89 b4 24 58 06 00 	mov    %r14,0x658(%rsp)
  404feb:	00 
  404fec:	49 89 c5             	mov    %rax,%r13
  404fef:	48 89 94 24 50 06 00 	mov    %rdx,0x650(%rsp)
  404ff6:	00 
  404ff7:	48 89 84 24 48 06 00 	mov    %rax,0x648(%rsp)
  404ffe:	00 
  404fff:	44 8b b4 24 04 03 00 	mov    0x304(%rsp),%r14d
  405006:	00 
  405007:	e9 f1 f8 ff ff       	jmpq   4048fd <main+0x131d>
  40500c:	48 83 fb 04          	cmp    $0x4,%rbx
  405010:	72 4c                	jb     40505e <main+0x1a7e>
  405012:	48 89 d9             	mov    %rbx,%rcx
  405015:	45 33 c0             	xor    %r8d,%r8d
  405018:	c5 fd ef c0          	vpxor  %ymm0,%ymm0,%ymm0
  40501c:	48 83 e1 fc          	and    $0xfffffffffffffffc,%rcx
  405020:	c4 a1 7e 7f 04 c7    	vmovdqu %ymm0,(%rdi,%r8,8)
  405026:	49 83 c0 04          	add    $0x4,%r8
  40502a:	4c 3b c1             	cmp    %rcx,%r8
  40502d:	72 f1                	jb     405020 <main+0x1a40>
  40502f:	45 33 c9             	xor    %r9d,%r9d
  405032:	4c 8d 41 01          	lea    0x1(%rcx),%r8
  405036:	4c 3b c3             	cmp    %rbx,%r8
  405039:	0f 87 0f ff ff ff    	ja     404f4e <main+0x196e>
  40503f:	4c 8d 04 cf          	lea    (%rdi,%rcx,8),%r8
  405043:	48 f7 d9             	neg    %rcx
  405046:	48 03 cb             	add    %rbx,%rcx
  405049:	4b c7 04 c8 00 00 00 	movq   $0x0,(%r8,%r9,8)
  405050:	00 
  405051:	49 ff c1             	inc    %r9
  405054:	4c 3b c9             	cmp    %rcx,%r9
  405057:	72 f0                	jb     405049 <main+0x1a69>
  405059:	e9 f0 fe ff ff       	jmpq   404f4e <main+0x196e>
  40505e:	33 c9                	xor    %ecx,%ecx
  405060:	eb cd                	jmp    40502f <main+0x1a4f>
  405062:	48 b8 ff ff ff ff ff 	movabs $0x1fffffffffffffff,%rax
  405069:	ff ff 1f 
  40506c:	4c 3b f0             	cmp    %rax,%r14
  40506f:	77 76                	ja     4050e7 <main+0x1b07>
  405071:	49 c1 e6 03          	shl    $0x3,%r14
  405075:	4c 89 f7             	mov    %r14,%rdi
  405078:	e8 d3 e1 ff ff       	callq  403250 <_Znwm@plt>
  40507d:	4c 8b ac 24 48 06 00 	mov    0x648(%rsp),%r13
  405084:	00 
  405085:	e9 97 fe ff ff       	jmpq   404f21 <main+0x1941>
  40508a:	48 89 44 24 08       	mov    %rax,0x8(%rsp)
  40508f:	48 8d bc 24 28 06 00 	lea    0x628(%rsp),%rdi
  405096:	00 
  405097:	e8 34 11 00 00       	callq  4061d0 <_ZNSt6vectorIlSaIlEED1Ev>
  40509c:	48 8d bc 24 60 06 00 	lea    0x660(%rsp),%rdi
  4050a3:	00 
  4050a4:	e8 27 11 00 00       	callq  4061d0 <_ZNSt6vectorIlSaIlEED1Ev>
  4050a9:	48 8d bc 24 18 06 00 	lea    0x618(%rsp),%rdi
  4050b0:	00 
  4050b1:	e8 2a 12 00 00       	callq  4062e0 <_ZNSt14pointer_traitsIPKcE10pointer_toERS0_>
  4050b6:	48 8b bc 24 08 06 00 	mov    0x608(%rsp),%rdi
  4050bd:	00 
  4050be:	48 3b f8             	cmp    %rax,%rdi
  4050c1:	74 05                	je     4050c8 <main+0x1ae8>
  4050c3:	e8 68 e1 ff ff       	callq  403230 <_ZdlPv@plt>
  4050c8:	48 8d bc 24 08 06 00 	lea    0x608(%rsp),%rdi
  4050cf:	00 
  4050d0:	e8 fb 11 00 00       	callq  4062d0 <_ZNSt7__cxx1112basic_stringIcSt11char_traitsIcESaIcEE12_Alloc_hiderD1Ev>
  4050d5:	48 8d bc 24 40 06 00 	lea    0x640(%rsp),%rdi
  4050dc:	00 
  4050dd:	e8 2e 11 00 00       	callq  406210 <_ZN10IOOverTimeD1Ev>
  4050e2:	e9 1d ec ff ff       	jmpq   403d04 <main+0x724>
  4050e7:	e8 d4 df ff ff       	callq  4030c0 <_ZSt17__throw_bad_allocv@plt>
  4050ec:	bf 58 11 42 00       	mov    $0x421158,%edi
  4050f1:	e8 4a e0 ff ff       	callq  403140 <_ZSt20__throw_length_errorPKc@plt>
  4050f6:	48 89 44 24 08       	mov    %rax,0x8(%rsp)
  4050fb:	48 8d bc 24 90 04 00 	lea    0x490(%rsp),%rdi
  405102:	00 
  405103:	e8 d8 11 00 00       	callq  4062e0 <_ZNSt14pointer_traitsIPKcE10pointer_toERS0_>
  405108:	48 8b bc 24 80 04 00 	mov    0x480(%rsp),%rdi
  40510f:	00 
  405110:	48 3b f8             	cmp    %rax,%rdi
  405113:	74 05                	je     40511a <main+0x1b3a>
  405115:	e8 16 e1 ff ff       	callq  403230 <_ZdlPv@plt>
  40511a:	48 8d bc 24 80 04 00 	lea    0x480(%rsp),%rdi
  405121:	00 
  405122:	e8 a9 11 00 00       	callq  4062d0 <_ZNSt7__cxx1112basic_stringIcSt11char_traitsIcESaIcEE12_Alloc_hiderD1Ev>
  405127:	48 8d bc 24 38 05 00 	lea    0x538(%rsp),%rdi
  40512e:	00 
  40512f:	e8 ac 11 00 00       	callq  4062e0 <_ZNSt14pointer_traitsIPKcE10pointer_toERS0_>
  405134:	48 8b bc 24 28 05 00 	mov    0x528(%rsp),%rdi
  40513b:	00 
  40513c:	48 3b f8             	cmp    %rax,%rdi
  40513f:	74 05                	je     405146 <main+0x1b66>
  405141:	e8 ea e0 ff ff       	callq  403230 <_ZdlPv@plt>
  405146:	48 8d bc 24 28 05 00 	lea    0x528(%rsp),%rdi
  40514d:	00 
  40514e:	e8 7d 11 00 00       	callq  4062d0 <_ZNSt7__cxx1112basic_stringIcSt11char_traitsIcESaIcEE12_Alloc_hiderD1Ev>
  405153:	e9 37 ff ff ff       	jmpq   40508f <main+0x1aaf>
  405158:	bf 70 11 42 00       	mov    $0x421170,%edi
  40515d:	e8 de df ff ff       	callq  403140 <_ZSt20__throw_length_errorPKc@plt>
  405162:	bf 88 11 42 00       	mov    $0x421188,%edi
  405167:	be a8 11 42 00       	mov    $0x4211a8,%esi
  40516c:	ba e9 00 00 00       	mov    $0xe9,%edx
  405171:	b9 ee 13 42 00       	mov    $0x4213ee,%ecx
  405176:	e8 f5 df ff ff       	callq  403170 <__assert_fail@plt>
  40517b:	48 89 44 24 08       	mov    %rax,0x8(%rsp)
  405180:	48 8b 05 f9 1a 02 00 	mov    0x21af9(%rip),%rax        # 426c80 <_ZTTNSt7__cxx1119basic_ostringstreamIcSt11char_traitsIcESaIcEEE@@GLIBCXX_3.4.21>
  405187:	48 8d bc 24 10 03 00 	lea    0x310(%rsp),%rdi
  40518e:	00 
  40518f:	48 8b 15 02 1b 02 00 	mov    0x21b02(%rip),%rdx        # 426c98 <_ZTTNSt7__cxx1119basic_ostringstreamIcSt11char_traitsIcESaIcEEE@@GLIBCXX_3.4.21+0x18>
  405196:	48 89 47 f8          	mov    %rax,-0x8(%rdi)
  40519a:	48 8b 48 e8          	mov    -0x18(%rax),%rcx
  40519e:	48 89 94 0c 08 03 00 	mov    %rdx,0x308(%rsp,%rcx,1)
  4051a5:	00 
  4051a6:	e8 d5 10 00 00       	callq  406280 <_ZNSt7__cxx1115basic_stringbufIcSt11char_traitsIcESaIcEED1Ev>
  4051ab:	48 8b 05 d6 1a 02 00 	mov    0x21ad6(%rip),%rax        # 426c88 <_ZTTNSt7__cxx1119basic_ostringstreamIcSt11char_traitsIcESaIcEEE@@GLIBCXX_3.4.21+0x8>
  4051b2:	48 8b 15 d7 1a 02 00 	mov    0x21ad7(%rip),%rdx        # 426c90 <_ZTTNSt7__cxx1119basic_ostringstreamIcSt11char_traitsIcESaIcEEE@@GLIBCXX_3.4.21+0x10>
  4051b9:	48 89 84 24 08 03 00 	mov    %rax,0x308(%rsp)
  4051c0:	00 
  4051c1:	48 8b 48 e8          	mov    -0x18(%rax),%rcx
  4051c5:	48 89 94 0c 08 03 00 	mov    %rdx,0x308(%rsp,%rcx,1)
  4051cc:	00 
  4051cd:	48 8d bc 24 78 03 00 	lea    0x378(%rsp),%rdi
  4051d4:	00 
  4051d5:	48 c7 07 f0 6b 42 00 	movq   $0x426bf0,(%rdi)
  4051dc:	e8 9f de ff ff       	callq  403080 <_ZNSt8ios_baseD2Ev@plt>
  4051e1:	48 8d bc 24 58 05 00 	lea    0x558(%rsp),%rdi
  4051e8:	00 
  4051e9:	e8 f2 10 00 00       	callq  4062e0 <_ZNSt14pointer_traitsIPKcE10pointer_toERS0_>
  4051ee:	48 8b bc 24 48 05 00 	mov    0x548(%rsp),%rdi
  4051f5:	00 
  4051f6:	48 3b f8             	cmp    %rax,%rdi
  4051f9:	74 05                	je     405200 <main+0x1c20>
  4051fb:	e8 30 e0 ff ff       	callq  403230 <_ZdlPv@plt>
  405200:	48 8d bc 24 48 05 00 	lea    0x548(%rsp),%rdi
  405207:	00 
  405208:	e8 c3 10 00 00       	callq  4062d0 <_ZNSt7__cxx1112basic_stringIcSt11char_traitsIcESaIcEE12_Alloc_hiderD1Ev>
  40520d:	e9 15 ff ff ff       	jmpq   405127 <main+0x1b47>
  405212:	48 89 04 24          	mov    %rax,(%rsp)
  405216:	33 c0                	xor    %eax,%eax
  405218:	48 8b 3c 24          	mov    (%rsp),%rdi
  40521c:	e8 cf e0 ff ff       	callq  4032f0 <__cxa_call_unexpected@plt>
  405221:	48 8b 3c 24          	mov    (%rsp),%rdi
  405225:	e8 26 e2 ff ff       	callq  403450 <_Unwind_Resume@plt>
  40522a:	be a4 11 42 00       	mov    $0x4211a4,%esi
  40522f:	48 8d bc 24 08 03 00 	lea    0x308(%rsp),%rdi
  405236:	00 
  405237:	e8 04 e0 ff ff       	callq  403240 <_ZStlsISt11char_traitsIcEERSt13basic_ostreamIcT_ES5_PKc@plt>
  40523c:	48 c7 84 24 70 05 00 	movq   $0x0,0x570(%rsp)
  405243:	00 00 00 00 00 
  405248:	48 8d 84 24 78 05 00 	lea    0x578(%rsp),%rax
  40524f:	00 
  405250:	48 89 40 f0          	mov    %rax,-0x10(%rax)
  405254:	c6 00 00             	movb   $0x0,(%rax)
  405257:	48 8b 80 c0 fd ff ff 	mov    -0x240(%rax),%rax
  40525e:	48 85 c0             	test   %rax,%rax
  405261:	75 17                	jne    40527a <main+0x1c9a>
  405263:	48 8d bc 24 68 05 00 	lea    0x568(%rsp),%rdi
  40526a:	00 
  40526b:	48 8d b4 24 58 03 00 	lea    0x358(%rsp),%rsi
  405272:	00 
  405273:	e8 d8 de ff ff       	callq  403150 <_ZNSt7__cxx1112basic_stringIcSt11char_traitsIcESaIcEE9_M_assignERKS4_@plt>
  405278:	eb 4e                	jmp    4052c8 <main+0x1ce8>
  40527a:	4c 8b 84 24 28 03 00 	mov    0x328(%rsp),%r8
  405281:	00 
  405282:	49 3b c0             	cmp    %r8,%rax
  405285:	76 23                	jbe    4052aa <main+0x1cca>
  405287:	48 8b 8c 24 30 03 00 	mov    0x330(%rsp),%rcx
  40528e:	00 
  40528f:	48 2b c1             	sub    %rcx,%rax
  405292:	33 f6                	xor    %esi,%esi
  405294:	48 8d bc 24 68 05 00 	lea    0x568(%rsp),%rdi
  40529b:	00 
  40529c:	49 89 c0             	mov    %rax,%r8
  40529f:	48 8b 57 08          	mov    0x8(%rdi),%rdx
  4052a3:	e8 18 e1 ff ff       	callq  4033c0 <_ZNSt7__cxx1112basic_stringIcSt11char_traitsIcESaIcEE10_M_replaceEmmPKcm@plt>
  4052a8:	eb 1e                	jmp    4052c8 <main+0x1ce8>
  4052aa:	48 8b 8c 24 30 03 00 	mov    0x330(%rsp),%rcx
  4052b1:	00 
  4052b2:	4c 2b c1             	sub    %rcx,%r8
  4052b5:	33 f6                	xor    %esi,%esi
  4052b7:	48 8d bc 24 68 05 00 	lea    0x568(%rsp),%rdi
  4052be:	00 
  4052bf:	48 8b 57 08          	mov    0x8(%rdi),%rdx
  4052c3:	e8 f8 e0 ff ff       	callq  4033c0 <_ZNSt7__cxx1112basic_stringIcSt11char_traitsIcESaIcEE10_M_replaceEmmPKcm@plt>
  4052c8:	48 8b 05 b1 19 02 00 	mov    0x219b1(%rip),%rax        # 426c80 <_ZTTNSt7__cxx1119basic_ostringstreamIcSt11char_traitsIcESaIcEEE@@GLIBCXX_3.4.21>
  4052cf:	4c 8d 84 24 68 03 00 	lea    0x368(%rsp),%r8
  4052d6:	00 
  4052d7:	48 8b 0d ba 19 02 00 	mov    0x219ba(%rip),%rcx        # 426c98 <_ZTTNSt7__cxx1119basic_ostringstreamIcSt11char_traitsIcESaIcEEE@@GLIBCXX_3.4.21+0x18>
  4052de:	49 89 40 a0          	mov    %rax,-0x60(%r8)
  4052e2:	48 8b 58 e8          	mov    -0x18(%rax),%rbx
  4052e6:	48 89 8c 1c 08 03 00 	mov    %rcx,0x308(%rsp,%rbx,1)
  4052ed:	00 
  4052ee:	49 8b 78 f0          	mov    -0x10(%r8),%rdi
  4052f2:	49 3b f8             	cmp    %r8,%rdi
  4052f5:	74 05                	je     4052fc <main+0x1d1c>
  4052f7:	e8 34 df ff ff       	callq  403230 <_ZdlPv@plt>
  4052fc:	48 8d bc 24 48 03 00 	lea    0x348(%rsp),%rdi
  405303:	00 
  405304:	48 c7 47 c8 10 6c 42 	movq   $0x426c10,-0x38(%rdi)
  40530b:	00 
  40530c:	e8 1f e0 ff ff       	callq  403330 <_ZNSt6localeD1Ev@plt>
  405311:	48 8b 05 70 19 02 00 	mov    0x21970(%rip),%rax        # 426c88 <_ZTTNSt7__cxx1119basic_ostringstreamIcSt11char_traitsIcESaIcEEE@@GLIBCXX_3.4.21+0x8>
  405318:	48 8b 0d 71 19 02 00 	mov    0x21971(%rip),%rcx        # 426c90 <_ZTTNSt7__cxx1119basic_ostringstreamIcSt11char_traitsIcESaIcEEE@@GLIBCXX_3.4.21+0x10>
  40531f:	48 89 84 24 08 03 00 	mov    %rax,0x308(%rsp)
  405326:	00 
  405327:	48 8b 58 e8          	mov    -0x18(%rax),%rbx
  40532b:	48 89 8c 1c 08 03 00 	mov    %rcx,0x308(%rsp,%rbx,1)
  405332:	00 
  405333:	48 8d bc 24 78 03 00 	lea    0x378(%rsp),%rdi
  40533a:	00 
  40533b:	48 c7 07 f0 6b 42 00 	movq   $0x426bf0,(%rdi)
  405342:	e8 39 dd ff ff       	callq  403080 <_ZNSt8ios_baseD2Ev@plt>
  405347:	48 8d 84 24 a0 02 00 	lea    0x2a0(%rsp),%rax
  40534e:	00 
  40534f:	ff b4 24 68 05 00 00 	pushq  0x568(%rsp)
  405356:	50                   	push   %rax
  405357:	bf a0 16 42 00       	mov    $0x4216a0,%edi
  40535c:	4c 89 f6             	mov    %r14,%rsi
  40535f:	4c 89 ea             	mov    %r13,%rdx
  405362:	4d 89 e1             	mov    %r12,%r9
  405365:	b8 02 00 00 00       	mov    $0x2,%eax
  40536a:	8b 0d 88 27 02 00    	mov    0x22788(%rip),%ecx        # 427af8 <node_count>
  405370:	44 8b 05 79 27 02 00 	mov    0x22779(%rip),%r8d        # 427af0 <np>
  405377:	c5 fb 10 84 24 a0 06 	vmovsd 0x6a0(%rsp),%xmm0
  40537e:	00 00 
  405380:	c5 fb 10 8c 24 98 06 	vmovsd 0x698(%rsp),%xmm1
  405387:	00 00 
  405389:	e8 c2 dc ff ff       	callq  403050 <printf@plt>
  40538e:	48 83 c4 10          	add    $0x10,%rsp
  405392:	48 8b bc 24 68 05 00 	mov    0x568(%rsp),%rdi
  405399:	00 
  40539a:	48 8d 84 24 78 05 00 	lea    0x578(%rsp),%rax
  4053a1:	00 
  4053a2:	48 3b f8             	cmp    %rax,%rdi
  4053a5:	74 05                	je     4053ac <main+0x1dcc>
  4053a7:	e8 84 de ff ff       	callq  403230 <_ZdlPv@plt>
  4053ac:	48 8b bc 24 48 05 00 	mov    0x548(%rsp),%rdi
  4053b3:	00 
  4053b4:	48 8d 84 24 58 05 00 	lea    0x558(%rsp),%rax
  4053bb:	00 
  4053bc:	48 3b f8             	cmp    %rax,%rdi
  4053bf:	74 05                	je     4053c6 <main+0x1de6>
  4053c1:	e8 6a de ff ff       	callq  403230 <_ZdlPv@plt>
  4053c6:	48 8b bc 24 28 05 00 	mov    0x528(%rsp),%rdi
  4053cd:	00 
  4053ce:	48 8d 84 24 38 05 00 	lea    0x538(%rsp),%rax
  4053d5:	00 
  4053d6:	48 3b f8             	cmp    %rax,%rdi
  4053d9:	0f 84 68 f5 ff ff    	je     404947 <main+0x1367>
  4053df:	e8 4c de ff ff       	callq  403230 <_ZdlPv@plt>
  4053e4:	e9 5e f5 ff ff       	jmpq   404947 <main+0x1367>
  4053e9:	48 89 44 24 08       	mov    %rax,0x8(%rsp)
  4053ee:	48 8d bc 24 78 05 00 	lea    0x578(%rsp),%rdi
  4053f5:	00 
  4053f6:	e8 e5 0e 00 00       	callq  4062e0 <_ZNSt14pointer_traitsIPKcE10pointer_toERS0_>
  4053fb:	48 8b bc 24 68 05 00 	mov    0x568(%rsp),%rdi
  405402:	00 
  405403:	48 3b f8             	cmp    %rax,%rdi
  405406:	74 05                	je     40540d <main+0x1e2d>
  405408:	e8 23 de ff ff       	callq  403230 <_ZdlPv@plt>
  40540d:	48 8d bc 24 68 05 00 	lea    0x568(%rsp),%rdi
  405414:	00 
  405415:	e8 b6 0e 00 00       	callq  4062d0 <_ZNSt7__cxx1112basic_stringIcSt11char_traitsIcESaIcEE12_Alloc_hiderD1Ev>
  40541a:	e9 61 fd ff ff       	jmpq   405180 <main+0x1ba0>
  40541f:	48 89 44 24 08       	mov    %rax,0x8(%rsp)
  405424:	48 8d bc 24 78 05 00 	lea    0x578(%rsp),%rdi
  40542b:	00 
  40542c:	e8 af 0e 00 00       	callq  4062e0 <_ZNSt14pointer_traitsIPKcE10pointer_toERS0_>
  405431:	48 8b bc 24 68 05 00 	mov    0x568(%rsp),%rdi
  405438:	00 
  405439:	48 3b f8             	cmp    %rax,%rdi
  40543c:	74 05                	je     405443 <main+0x1e63>
  40543e:	e8 ed dd ff ff       	callq  403230 <_ZdlPv@plt>
  405443:	48 8d bc 24 68 05 00 	lea    0x568(%rsp),%rdi
  40544a:	00 
  40544b:	e8 80 0e 00 00       	callq  4062d0 <_ZNSt7__cxx1112basic_stringIcSt11char_traitsIcESaIcEE12_Alloc_hiderD1Ev>
  405450:	e9 8c fd ff ff       	jmpq   4051e1 <main+0x1c01>
  405455:	48 89 44 24 08       	mov    %rax,0x8(%rsp)
  40545a:	33 c0                	xor    %eax,%eax
  40545c:	48 8b 7c 24 08       	mov    0x8(%rsp),%rdi
  405461:	e8 8a de ff ff       	callq  4032f0 <__cxa_call_unexpected@plt>
  405466:	e9 76 fd ff ff       	jmpq   4051e1 <main+0x1c01>
  40546b:	48 89 44 24 08       	mov    %rax,0x8(%rsp)
  405470:	e9 6c fd ff ff       	jmpq   4051e1 <main+0x1c01>
  405475:	e8 66 de ff ff       	callq  4032e0 <MPI_Wtime@plt>
  40547a:	c5 fb 11 04 24       	vmovsd %xmm0,(%rsp)
  40547f:	e8 bc db ff ff       	callq  403040 <__errno_location@plt>
  405484:	8b 38                	mov    (%rax),%edi
  405486:	e8 05 dc ff ff       	callq  403090 <strerror@plt>
  40548b:	c5 fb 10 04 24       	vmovsd (%rsp),%xmm0
  405490:	bf b8 11 42 00       	mov    $0x4211b8,%edi
  405495:	44 89 f2             	mov    %r14d,%edx
  405498:	49 89 c1             	mov    %rax,%r9
  40549b:	b8 01 00 00 00       	mov    $0x1,%eax
  4054a0:	c5 fb 5c 05 40 26 02 	vsubsd 0x22640(%rip),%xmm0,%xmm0        # 427ae8 <t0>
  4054a7:	00 
  4054a8:	8b 35 46 26 02 00    	mov    0x22646(%rip),%esi        # 427af4 <rank>
  4054ae:	48 8b 8c 24 98 06 00 	mov    0x698(%rsp),%rcx
  4054b5:	00 
  4054b6:	44 8b 84 24 ac 06 00 	mov    0x6ac(%rsp),%r8d
  4054bd:	00 
  4054be:	e8 8d db ff ff       	callq  403050 <printf@plt>
  4054c3:	e9 f8 f2 ff ff       	jmpq   4047c0 <main+0x11e0>
  4054c8:	48 2b f0             	sub    %rax,%rsi
  4054cb:	48 8d bc 24 48 06 00 	lea    0x648(%rsp),%rdi
  4054d2:	00 
  4054d3:	e8 18 10 00 00       	callq  4064f0 <_ZNSt6vectorIlSaIlEE17_M_default_appendEm>
  4054d8:	4c 8b 84 24 48 06 00 	mov    0x648(%rsp),%r8
  4054df:	00 
  4054e0:	4e 8d 0c fd 00 00 00 	lea    0x0(,%r15,8),%r9
  4054e7:	00 
  4054e8:	e9 71 f2 ff ff       	jmpq   40475e <main+0x117e>
  4054ed:	e8 ee dd ff ff       	callq  4032e0 <MPI_Wtime@plt>
  4054f2:	bf f8 11 42 00       	mov    $0x4211f8,%edi
  4054f7:	4c 89 ea             	mov    %r13,%rdx
  4054fa:	b8 01 00 00 00       	mov    $0x1,%eax
  4054ff:	c5 fb 5c 05 e1 25 02 	vsubsd 0x225e1(%rip),%xmm0,%xmm0        # 427ae8 <t0>
  405506:	00 
  405507:	8b 35 e7 25 02 00    	mov    0x225e7(%rip),%esi        # 427af4 <rank>
  40550d:	e8 3e db ff ff       	callq  403050 <printf@plt>
  405512:	8b 84 24 ac 06 00 00 	mov    0x6ac(%rsp),%eax
  405519:	b3 01                	mov    $0x1,%bl
  40551b:	e9 6a f2 ff ff       	jmpq   40478a <main+0x11aa>
  405520:	e8 bb dd ff ff       	callq  4032e0 <MPI_Wtime@plt>
  405525:	bf 2c 12 42 00       	mov    $0x42122c,%edi
  40552a:	44 89 fa             	mov    %r15d,%edx
  40552d:	b8 01 00 00 00       	mov    $0x1,%eax
  405532:	c5 fb 5c 05 ae 25 02 	vsubsd 0x225ae(%rip),%xmm0,%xmm0        # 427ae8 <t0>
  405539:	00 
  40553a:	8b 35 b4 25 02 00    	mov    0x225b4(%rip),%esi        # 427af4 <rank>
  405540:	8b 8c 24 f0 05 00 00 	mov    0x5f0(%rsp),%ecx
  405547:	e8 04 db ff ff       	callq  403050 <printf@plt>
  40554c:	8b 84 24 ac 06 00 00 	mov    0x6ac(%rsp),%eax
  405553:	b3 01                	mov    $0x1,%bl
  405555:	e9 30 f2 ff ff       	jmpq   40478a <main+0x11aa>
  40555a:	33 c0                	xor    %eax,%eax
  40555c:	e9 19 f1 ff ff       	jmpq   40467a <main+0x109a>
  405561:	4c 89 c0             	mov    %r8,%rax
  405564:	45 33 d2             	xor    %r10d,%r10d
  405567:	48 83 e0 f8          	and    $0xfffffffffffffff8,%rax
  40556b:	e9 c0 f0 ff ff       	jmpq   404630 <main+0x1050>
  405570:	e8 6b dd ff ff       	callq  4032e0 <MPI_Wtime@plt>
  405575:	c5 fb 11 04 24       	vmovsd %xmm0,(%rsp)
  40557a:	e8 c1 da ff ff       	callq  403040 <__errno_location@plt>
  40557f:	8b 38                	mov    (%rax),%edi
  405581:	e8 0a db ff ff       	callq  403090 <strerror@plt>
  405586:	c5 fb 10 04 24       	vmovsd (%rsp),%xmm0
  40558b:	bf 54 12 42 00       	mov    $0x421254,%edi
  405590:	44 89 f2             	mov    %r14d,%edx
  405593:	49 89 c1             	mov    %rax,%r9
  405596:	b8 01 00 00 00       	mov    $0x1,%eax
  40559b:	c5 fb 5c 05 45 25 02 	vsubsd 0x22545(%rip),%xmm0,%xmm0        # 427ae8 <t0>
  4055a2:	00 
  4055a3:	8b 35 4b 25 02 00    	mov    0x2254b(%rip),%esi        # 427af4 <rank>
  4055a9:	48 8b 8c 24 98 06 00 	mov    0x698(%rsp),%rcx
  4055b0:	00 
  4055b1:	44 8b 84 24 ac 06 00 	mov    0x6ac(%rsp),%r8d
  4055b8:	00 
  4055b9:	e8 92 da ff ff       	callq  403050 <printf@plt>
  4055be:	e9 fd f1 ff ff       	jmpq   4047c0 <main+0x11e0>
  4055c3:	48 89 44 24 08       	mov    %rax,0x8(%rsp)
  4055c8:	48 8d bc 24 18 06 00 	lea    0x618(%rsp),%rdi
  4055cf:	00 
  4055d0:	e8 0b 0d 00 00       	callq  4062e0 <_ZNSt14pointer_traitsIPKcE10pointer_toERS0_>
  4055d5:	48 8b bc 24 08 06 00 	mov    0x608(%rsp),%rdi
  4055dc:	00 
  4055dd:	48 3b f8             	cmp    %rax,%rdi
  4055e0:	74 05                	je     4055e7 <main+0x2007>
  4055e2:	e8 49 dc ff ff       	callq  403230 <_ZdlPv@plt>
  4055e7:	48 8d bc 24 08 06 00 	lea    0x608(%rsp),%rdi
  4055ee:	00 
  4055ef:	e8 dc 0c 00 00       	callq  4062d0 <_ZNSt7__cxx1112basic_stringIcSt11char_traitsIcESaIcEE12_Alloc_hiderD1Ev>
  4055f4:	48 8b 05 85 16 02 00 	mov    0x21685(%rip),%rax        # 426c80 <_ZTTNSt7__cxx1119basic_ostringstreamIcSt11char_traitsIcESaIcEEE@@GLIBCXX_3.4.21>
  4055fb:	48 8d bc 24 18 01 00 	lea    0x118(%rsp),%rdi
  405602:	00 
  405603:	48 8b 15 8e 16 02 00 	mov    0x2168e(%rip),%rdx        # 426c98 <_ZTTNSt7__cxx1119basic_ostringstreamIcSt11char_traitsIcESaIcEEE@@GLIBCXX_3.4.21+0x18>
  40560a:	48 89 47 f8          	mov    %rax,-0x8(%rdi)
  40560e:	48 8b 48 e8          	mov    -0x18(%rax),%rcx
  405612:	48 89 94 0c 10 01 00 	mov    %rdx,0x110(%rsp,%rcx,1)
  405619:	00 
  40561a:	e8 61 0c 00 00       	callq  406280 <_ZNSt7__cxx1115basic_stringbufIcSt11char_traitsIcESaIcEED1Ev>
  40561f:	48 8b 05 62 16 02 00 	mov    0x21662(%rip),%rax        # 426c88 <_ZTTNSt7__cxx1119basic_ostringstreamIcSt11char_traitsIcESaIcEEE@@GLIBCXX_3.4.21+0x8>
  405626:	48 8b 15 63 16 02 00 	mov    0x21663(%rip),%rdx        # 426c90 <_ZTTNSt7__cxx1119basic_ostringstreamIcSt11char_traitsIcESaIcEEE@@GLIBCXX_3.4.21+0x10>
  40562d:	48 89 84 24 10 01 00 	mov    %rax,0x110(%rsp)
  405634:	00 
  405635:	48 8b 48 e8          	mov    -0x18(%rax),%rcx
  405639:	48 89 94 0c 10 01 00 	mov    %rdx,0x110(%rsp,%rcx,1)
  405640:	00 
  405641:	48 8d bc 24 80 01 00 	lea    0x180(%rsp),%rdi
  405648:	00 
  405649:	48 c7 07 f0 6b 42 00 	movq   $0x426bf0,(%rdi)
  405650:	e8 2b da ff ff       	callq  403080 <_ZNSt8ios_baseD2Ev@plt>
  405655:	e9 7b fa ff ff       	jmpq   4050d5 <main+0x1af5>
  40565a:	48 89 04 24          	mov    %rax,(%rsp)
  40565e:	33 c0                	xor    %eax,%eax
  405660:	48 8b 3c 24          	mov    (%rsp),%rdi
  405664:	e8 87 dc ff ff       	callq  4032f0 <__cxa_call_unexpected@plt>
  405669:	48 8b 3c 24          	mov    (%rsp),%rdi
  40566d:	e8 de dd ff ff       	callq  403450 <_Unwind_Resume@plt>
  405672:	48 89 44 24 08       	mov    %rax,0x8(%rsp)
  405677:	e9 2d fa ff ff       	jmpq   4050a9 <main+0x1ac9>
  40567c:	e8 bf d9 ff ff       	callq  403040 <__errno_location@plt>
  405681:	8b 38                	mov    (%rax),%edi
  405683:	e8 08 da ff ff       	callq  403090 <strerror@plt>
  405688:	bf 94 12 42 00       	mov    $0x421294,%edi
  40568d:	48 89 c1             	mov    %rax,%rcx
  405690:	33 c0                	xor    %eax,%eax
  405692:	8b 35 5c 24 02 00    	mov    0x2245c(%rip),%esi        # 427af4 <rank>
  405698:	48 8b 94 24 98 06 00 	mov    0x698(%rsp),%rdx
  40569f:	00 
  4056a0:	e8 ab d9 ff ff       	callq  403050 <printf@plt>
  4056a5:	e9 3f ea ff ff       	jmpq   4040e9 <main+0xb09>
  4056aa:	48 2b f0             	sub    %rax,%rsi
  4056ad:	48 8d bc 24 48 06 00 	lea    0x648(%rsp),%rdi
  4056b4:	00 
  4056b5:	e8 36 0e 00 00       	callq  4064f0 <_ZNSt6vectorIlSaIlEE17_M_default_appendEm>
  4056ba:	4c 8b 84 24 48 06 00 	mov    0x648(%rsp),%r8
  4056c1:	00 
  4056c2:	4e 8d 0c fd 00 00 00 	lea    0x0(,%r15,8),%r9
  4056c9:	00 
  4056ca:	e9 4c ee ff ff       	jmpq   40451b <main+0xf3b>
  4056cf:	48 89 44 24 08       	mov    %rax,0x8(%rsp)
  4056d4:	48 8d bc 24 10 03 00 	lea    0x310(%rsp),%rdi
  4056db:	00 
  4056dc:	e8 9f 0b 00 00       	callq  406280 <_ZNSt7__cxx1115basic_stringbufIcSt11char_traitsIcESaIcEED1Ev>
  4056e1:	48 8b 05 a0 15 02 00 	mov    0x215a0(%rip),%rax        # 426c88 <_ZTTNSt7__cxx1119basic_ostringstreamIcSt11char_traitsIcESaIcEEE@@GLIBCXX_3.4.21+0x8>
  4056e8:	48 8b 15 a1 15 02 00 	mov    0x215a1(%rip),%rdx        # 426c90 <_ZTTNSt7__cxx1119basic_ostringstreamIcSt11char_traitsIcESaIcEEE@@GLIBCXX_3.4.21+0x10>
  4056ef:	48 89 84 24 08 03 00 	mov    %rax,0x308(%rsp)
  4056f6:	00 
  4056f7:	48 8b 48 e8          	mov    -0x18(%rax),%rcx
  4056fb:	48 89 94 0c 08 03 00 	mov    %rdx,0x308(%rsp,%rcx,1)
  405702:	00 
  405703:	48 8d bc 24 78 03 00 	lea    0x378(%rsp),%rdi
  40570a:	00 
  40570b:	48 c7 07 f0 6b 42 00 	movq   $0x426bf0,(%rdi)
  405712:	e8 69 d9 ff ff       	callq  403080 <_ZNSt8ios_baseD2Ev@plt>
  405717:	e9 c5 fa ff ff       	jmpq   4051e1 <main+0x1c01>
  40571c:	48 89 04 24          	mov    %rax,(%rsp)
  405720:	33 c0                	xor    %eax,%eax
  405722:	48 8b 3c 24          	mov    (%rsp),%rdi
  405726:	e8 c5 db ff ff       	callq  4032f0 <__cxa_call_unexpected@plt>
  40572b:	48 8b 3c 24          	mov    (%rsp),%rdi
  40572f:	e8 1c dd ff ff       	callq  403450 <_Unwind_Resume@plt>
  405734:	e8 a7 db ff ff       	callq  4032e0 <MPI_Wtime@plt>
  405739:	bf b0 12 42 00       	mov    $0x4212b0,%edi
  40573e:	44 89 fa             	mov    %r15d,%edx
  405741:	b8 01 00 00 00       	mov    $0x1,%eax
  405746:	c5 fb 5c 05 9a 23 02 	vsubsd 0x2239a(%rip),%xmm0,%xmm0        # 427ae8 <t0>
  40574d:	00 
  40574e:	8b 35 a0 23 02 00    	mov    0x223a0(%rip),%esi        # 427af4 <rank>
  405754:	8b 8c 24 f0 05 00 00 	mov    0x5f0(%rsp),%ecx
  40575b:	e8 f0 d8 ff ff       	callq  403050 <printf@plt>
  405760:	8b bc 24 ac 06 00 00 	mov    0x6ac(%rsp),%edi
  405767:	b3 01                	mov    $0x1,%bl
  405769:	e9 d9 ed ff ff       	jmpq   404547 <main+0xf67>
  40576e:	33 c0                	xor    %eax,%eax
  405770:	e9 ea ec ff ff       	jmpq   40445f <main+0xe7f>
  405775:	4c 89 c0             	mov    %r8,%rax
  405778:	45 33 d2             	xor    %r10d,%r10d
  40577b:	48 83 e0 f8          	and    $0xfffffffffffffff8,%rax
  40577f:	e9 91 ec ff ff       	jmpq   404415 <main+0xe35>
  405784:	48 89 44 24 08       	mov    %rax,0x8(%rsp)
  405789:	e9 75 ff ff ff       	jmpq   405703 <main+0x2123>
  40578e:	48 89 44 24 08       	mov    %rax,0x8(%rsp)
  405793:	e9 8f f9 ff ff       	jmpq   405127 <main+0x1b47>
  405798:	48 89 44 24 08       	mov    %rax,0x8(%rsp)
  40579d:	48 8d bc 24 98 05 00 	lea    0x598(%rsp),%rdi
  4057a4:	00 
  4057a5:	e8 36 0b 00 00       	callq  4062e0 <_ZNSt14pointer_traitsIPKcE10pointer_toERS0_>
  4057aa:	48 8b bc 24 88 05 00 	mov    0x588(%rsp),%rdi
  4057b1:	00 
  4057b2:	48 3b f8             	cmp    %rax,%rdi
  4057b5:	74 05                	je     4057bc <main+0x21dc>
  4057b7:	e8 74 da ff ff       	callq  403230 <_ZdlPv@plt>
  4057bc:	48 8d bc 24 88 05 00 	lea    0x588(%rsp),%rdi
  4057c3:	00 
  4057c4:	e8 07 0b 00 00       	callq  4062d0 <_ZNSt7__cxx1112basic_stringIcSt11char_traitsIcESaIcEE12_Alloc_hiderD1Ev>
  4057c9:	e9 c1 f8 ff ff       	jmpq   40508f <main+0x1aaf>
  4057ce:	48 83 fb 04          	cmp    $0x4,%rbx
  4057d2:	72 46                	jb     40581a <main+0x223a>
  4057d4:	48 89 d9             	mov    %rbx,%rcx
  4057d7:	33 c0                	xor    %eax,%eax
  4057d9:	c5 fd ef c0          	vpxor  %ymm0,%ymm0,%ymm0
  4057dd:	48 83 e1 fc          	and    $0xfffffffffffffffc,%rcx
  4057e1:	c5 fe 7f 04 c7       	vmovdqu %ymm0,(%rdi,%rax,8)
  4057e6:	48 83 c0 04          	add    $0x4,%rax
  4057ea:	48 3b c1             	cmp    %rcx,%rax
  4057ed:	72 f2                	jb     4057e1 <main+0x2201>
  4057ef:	33 d2                	xor    %edx,%edx
  4057f1:	48 8d 71 01          	lea    0x1(%rcx),%rsi
  4057f5:	48 3b f3             	cmp    %rbx,%rsi
  4057f8:	0f 87 10 ea ff ff    	ja     40420e <main+0xc2e>
  4057fe:	48 2b d9             	sub    %rcx,%rbx
  405801:	48 8d 04 cf          	lea    (%rdi,%rcx,8),%rax
  405805:	48 c7 04 d0 00 00 00 	movq   $0x0,(%rax,%rdx,8)
  40580c:	00 
  40580d:	48 ff c2             	inc    %rdx
  405810:	48 3b d3             	cmp    %rbx,%rdx
  405813:	72 f0                	jb     405805 <main+0x2225>
  405815:	e9 f4 e9 ff ff       	jmpq   40420e <main+0xc2e>
  40581a:	33 c9                	xor    %ecx,%ecx
  40581c:	eb d1                	jmp    4057ef <main+0x220f>
  40581e:	33 d2                	xor    %edx,%edx
  405820:	48 89 94 24 38 06 00 	mov    %rdx,0x638(%rsp)
  405827:	00 
  405828:	48 89 94 24 30 06 00 	mov    %rdx,0x630(%rsp)
  40582f:	00 
  405830:	48 89 94 24 28 06 00 	mov    %rdx,0x628(%rsp)
  405837:	00 
  405838:	c5 f8 77             	vzeroupper 
  40583b:	4c 8d 34 dd 00 00 00 	lea    0x0(,%rbx,8),%r14
  405842:	00 
  405843:	4c 89 f7             	mov    %r14,%rdi
  405846:	e8 05 da ff ff       	callq  403250 <_Znwm@plt>
  40584b:	48 89 c7             	mov    %rax,%rdi
  40584e:	e9 83 e9 ff ff       	jmpq   4041d6 <main+0xbf6>
  405853:	48 89 44 24 08       	mov    %rax,0x8(%rsp)
  405858:	48 8d bc 24 28 06 00 	lea    0x628(%rsp),%rdi
  40585f:	00 
  405860:	e8 3b 09 00 00       	callq  4061a0 <_ZNSt12_Vector_baseIlSaIlEE12_Vector_implD1Ev>
  405865:	48 8d 7c 24 01       	lea    0x1(%rsp),%rdi
  40586a:	e8 41 09 00 00       	callq  4061b0 <_ZNSaIlED1Ev>
  40586f:	e9 28 f8 ff ff       	jmpq   40509c <main+0x1abc>
  405874:	49 83 ff 04          	cmp    $0x4,%r15
  405878:	72 46                	jb     4058c0 <main+0x22e0>
  40587a:	4c 89 f9             	mov    %r15,%rcx
  40587d:	33 c0                	xor    %eax,%eax
  40587f:	c5 fd ef c0          	vpxor  %ymm0,%ymm0,%ymm0
  405883:	48 83 e1 fc          	and    $0xfffffffffffffffc,%rcx
  405887:	c5 fe 7f 04 c7       	vmovdqu %ymm0,(%rdi,%rax,8)
  40588c:	48 83 c0 04          	add    $0x4,%rax
  405890:	48 3b c1             	cmp    %rcx,%rax
  405893:	72 f2                	jb     405887 <main+0x22a7>
  405895:	33 d2                	xor    %edx,%edx
  405897:	48 8d 71 01          	lea    0x1(%rcx),%rsi
  40589b:	49 3b f7             	cmp    %r15,%rsi
  40589e:	0f 87 17 e9 ff ff    	ja     4041bb <main+0xbdb>
  4058a4:	4c 2b f9             	sub    %rcx,%r15
  4058a7:	48 8d 04 cf          	lea    (%rdi,%rcx,8),%rax
  4058ab:	48 c7 04 d0 00 00 00 	movq   $0x0,(%rax,%rdx,8)
  4058b2:	00 
  4058b3:	48 ff c2             	inc    %rdx
  4058b6:	49 3b d7             	cmp    %r15,%rdx
  4058b9:	72 f0                	jb     4058ab <main+0x22cb>
  4058bb:	e9 fb e8 ff ff       	jmpq   4041bb <main+0xbdb>
  4058c0:	33 c9                	xor    %ecx,%ecx
  4058c2:	eb d1                	jmp    405895 <main+0x22b5>
  4058c4:	33 d2                	xor    %edx,%edx
  4058c6:	48 89 94 24 70 06 00 	mov    %rdx,0x670(%rsp)
  4058cd:	00 
  4058ce:	48 89 94 24 68 06 00 	mov    %rdx,0x668(%rsp)
  4058d5:	00 
  4058d6:	48 89 94 24 60 06 00 	mov    %rdx,0x660(%rsp)
  4058dd:	00 
  4058de:	4e 8d 34 fd 00 00 00 	lea    0x0(,%r15,8),%r14
  4058e5:	00 
  4058e6:	4c 89 f7             	mov    %r14,%rdi
  4058e9:	e8 62 d9 ff ff       	callq  403250 <_Znwm@plt>
  4058ee:	48 89 c7             	mov    %rax,%rdi
  4058f1:	48 63 9c 24 f0 05 00 	movslq 0x5f0(%rsp),%rbx
  4058f8:	00 
  4058f9:	e9 84 e8 ff ff       	jmpq   404182 <main+0xba2>
  4058fe:	48 89 44 24 08       	mov    %rax,0x8(%rsp)
  405903:	48 8d bc 24 60 06 00 	lea    0x660(%rsp),%rdi
  40590a:	00 
  40590b:	e8 90 08 00 00       	callq  4061a0 <_ZNSt12_Vector_baseIlSaIlEE12_Vector_implD1Ev>
  405910:	48 8d 3c 24          	lea    (%rsp),%rdi
  405914:	e8 97 08 00 00       	callq  4061b0 <_ZNSaIlED1Ev>
  405919:	e9 8b f7 ff ff       	jmpq   4050a9 <main+0x1ac9>
  40591e:	48 89 44 24 08       	mov    %rax,0x8(%rsp)
  405923:	33 c0                	xor    %eax,%eax
  405925:	48 8b 7c 24 08       	mov    0x8(%rsp),%rdi
  40592a:	e8 c1 d9 ff ff       	callq  4032f0 <__cxa_call_unexpected@plt>
  40592f:	e9 a1 f7 ff ff       	jmpq   4050d5 <main+0x1af5>
  405934:	48 89 44 24 08       	mov    %rax,0x8(%rsp)
  405939:	e9 97 f7 ff ff       	jmpq   4050d5 <main+0x1af5>
  40593e:	48 89 44 24 08       	mov    %rax,0x8(%rsp)
  405943:	e9 ac fc ff ff       	jmpq   4055f4 <main+0x2014>
  405948:	48 89 44 24 08       	mov    %rax,0x8(%rsp)
  40594d:	48 8d bc 24 18 01 00 	lea    0x118(%rsp),%rdi
  405954:	00 
  405955:	e8 26 09 00 00       	callq  406280 <_ZNSt7__cxx1115basic_stringbufIcSt11char_traitsIcESaIcEED1Ev>
  40595a:	48 8b 05 27 13 02 00 	mov    0x21327(%rip),%rax        # 426c88 <_ZTTNSt7__cxx1119basic_ostringstreamIcSt11char_traitsIcESaIcEEE@@GLIBCXX_3.4.21+0x8>
  405961:	48 8b 15 28 13 02 00 	mov    0x21328(%rip),%rdx        # 426c90 <_ZTTNSt7__cxx1119basic_ostringstreamIcSt11char_traitsIcESaIcEEE@@GLIBCXX_3.4.21+0x10>
  405968:	48 89 84 24 10 01 00 	mov    %rax,0x110(%rsp)
  40596f:	00 
  405970:	48 8b 48 e8          	mov    -0x18(%rax),%rcx
  405974:	48 89 94 0c 10 01 00 	mov    %rdx,0x110(%rsp,%rcx,1)
  40597b:	00 
  40597c:	48 8d bc 24 80 01 00 	lea    0x180(%rsp),%rdi
  405983:	00 
  405984:	48 c7 07 f0 6b 42 00 	movq   $0x426bf0,(%rdi)
  40598b:	e8 f0 d6 ff ff       	callq  403080 <_ZNSt8ios_baseD2Ev@plt>
  405990:	e9 40 f7 ff ff       	jmpq   4050d5 <main+0x1af5>
  405995:	48 89 04 24          	mov    %rax,(%rsp)
  405999:	33 c0                	xor    %eax,%eax
  40599b:	48 8b 3c 24          	mov    (%rsp),%rdi
  40599f:	e8 4c d9 ff ff       	callq  4032f0 <__cxa_call_unexpected@plt>
  4059a4:	48 8b 3c 24          	mov    (%rsp),%rdi
  4059a8:	e8 a3 da ff ff       	callq  403450 <_Unwind_Resume@plt>
  4059ad:	48 89 44 24 08       	mov    %rax,0x8(%rsp)
  4059b2:	eb c8                	jmp    40597c <main+0x239c>
  4059b4:	45 33 ed             	xor    %r13d,%r13d
  4059b7:	e9 5c dd ff ff       	jmpq   403718 <main+0x138>
  4059bc:	bf d8 12 42 00       	mov    $0x4212d8,%edi
  4059c1:	e8 fa d8 ff ff       	callq  4032c0 <getenv@plt>
  4059c6:	e9 38 dd ff ff       	jmpq   403703 <main+0x123>
  4059cb:	0f 1f 44 00 00       	nopl   0x0(%rax,%rax,1)

00000000004059d0 <_Z9timestampB5cxx11i..0>:
  4059d0:	53                   	push   %rbx
  4059d1:	55                   	push   %rbp
  4059d2:	48 83 ec 68          	sub    $0x68,%rsp
  4059d6:	48 89 fd             	mov    %rdi,%rbp
  4059d9:	48 8d 7c 24 58       	lea    0x58(%rsp),%rdi
  4059de:	e8 3d d8 ff ff       	callq  403220 <time@plt>
  4059e3:	48 8d 7c 24 58       	lea    0x58(%rsp),%rdi
  4059e8:	48 8d 74 24 08       	lea    0x8(%rsp),%rsi
  4059ed:	e8 3e d7 ff ff       	callq  403130 <localtime_r@plt>
  4059f2:	be 14 00 00 00       	mov    $0x14,%esi
  4059f7:	48 8d 7c 24 40       	lea    0x40(%rsp),%rdi
  4059fc:	ba e8 12 42 00       	mov    $0x4212e8,%edx
  405a01:	48 8d 4c 24 08       	lea    0x8(%rsp),%rcx
  405a06:	e8 d5 d7 ff ff       	callq  4031e0 <strftime@plt>
  405a0b:	48 8d 54 24 40       	lea    0x40(%rsp),%rdx
  405a10:	48 8d 45 10          	lea    0x10(%rbp),%rax
  405a14:	48 89 45 00          	mov    %rax,0x0(%rbp)
  405a18:	48 89 d1             	mov    %rdx,%rcx
  405a1b:	48 83 e2 f0          	and    $0xfffffffffffffff0,%rdx
  405a1f:	c5 f9 ef c0          	vpxor  %xmm0,%xmm0,%xmm0
  405a23:	c5 f9 74 02          	vpcmpeqb (%rdx),%xmm0,%xmm0
  405a27:	c5 f9 d7 c0          	vpmovmskb %xmm0,%eax
  405a2b:	83 e1 0f             	and    $0xf,%ecx
  405a2e:	d3 e8                	shr    %cl,%eax
  405a30:	0f bc c0             	bsf    %eax,%eax
  405a33:	75 0c                	jne    405a41 <_Z9timestampB5cxx11i..0+0x71>
  405a35:	48 89 d0             	mov    %rdx,%rax
  405a38:	48 03 d1             	add    %rcx,%rdx
  405a3b:	ff 15 6f 15 02 00    	callq  *0x2156f(%rip)        # 426fb0 <.got+0x10>
  405a41:	48 89 c3             	mov    %rax,%rbx
  405a44:	48 89 5c 24 60       	mov    %rbx,0x60(%rsp)
  405a49:	48 89 d9             	mov    %rbx,%rcx
  405a4c:	48 83 fb 0f          	cmp    $0xf,%rbx
  405a50:	77 06                	ja     405a58 <_Z9timestampB5cxx11i..0+0x88>
  405a52:	48 8b 7d 00          	mov    0x0(%rbp),%rdi
  405a56:	eb 1f                	jmp    405a77 <_Z9timestampB5cxx11i..0+0xa7>
  405a58:	48 89 ef             	mov    %rbp,%rdi
  405a5b:	48 8d 74 24 60       	lea    0x60(%rsp),%rsi
  405a60:	33 d2                	xor    %edx,%edx
  405a62:	e8 09 da ff ff       	callq  403470 <_ZNSt7__cxx1112basic_stringIcSt11char_traitsIcESaIcEE9_M_createERmm@plt>
  405a67:	48 89 c7             	mov    %rax,%rdi
  405a6a:	48 8b 4c 24 60       	mov    0x60(%rsp),%rcx
  405a6f:	48 89 7d 00          	mov    %rdi,0x0(%rbp)
  405a73:	48 89 4d 10          	mov    %rcx,0x10(%rbp)
  405a77:	48 83 fb 01          	cmp    $0x1,%rbx
  405a7b:	75 0c                	jne    405a89 <_Z9timestampB5cxx11i..0+0xb9>
  405a7d:	8a 44 24 40          	mov    0x40(%rsp),%al
  405a81:	88 07                	mov    %al,(%rdi)
  405a83:	48 8b 7d 00          	mov    0x0(%rbp),%rdi
  405a87:	eb 1b                	jmp    405aa4 <_Z9timestampB5cxx11i..0+0xd4>
  405a89:	48 85 db             	test   %rbx,%rbx
  405a8c:	74 16                	je     405aa4 <_Z9timestampB5cxx11i..0+0xd4>
  405a8e:	48 89 da             	mov    %rbx,%rdx
  405a91:	48 8d 74 24 40       	lea    0x40(%rsp),%rsi
  405a96:	e8 85 0d 00 00       	callq  406820 <_intel_fast_memcpy>
  405a9b:	48 8b 4c 24 60       	mov    0x60(%rsp),%rcx
  405aa0:	48 8b 7d 00          	mov    0x0(%rbp),%rdi
  405aa4:	48 89 4d 08          	mov    %rcx,0x8(%rbp)
  405aa8:	c6 04 0f 00          	movb   $0x0,(%rdi,%rcx,1)
  405aac:	48 83 c4 68          	add    $0x68,%rsp
  405ab0:	5d                   	pop    %rbp
  405ab1:	5b                   	pop    %rbx
  405ab2:	c3                   	retq   
  405ab3:	48 89 04 24          	mov    %rax,(%rsp)
  405ab7:	48 89 ef             	mov    %rbp,%rdi
  405aba:	e8 11 08 00 00       	callq  4062d0 <_ZNSt7__cxx1112basic_stringIcSt11char_traitsIcESaIcEE12_Alloc_hiderD1Ev>
  405abf:	48 8b 3c 24          	mov    (%rsp),%rdi
  405ac3:	e8 88 d9 ff ff       	callq  403450 <_Unwind_Resume@plt>
  405ac8:	0f 1f 84 00 00 00 00 	nopl   0x0(%rax,%rax,1)
  405acf:	00 

0000000000405ad0 <_Z11gatherStatslRlRd>:
  405ad0:	55                   	push   %rbp
  405ad1:	48 89 e5             	mov    %rsp,%rbp
  405ad4:	48 83 e4 c0          	and    $0xffffffffffffffc0,%rsp
  405ad8:	41 54                	push   %r12
  405ada:	41 55                	push   %r13
  405adc:	41 56                	push   %r14
  405ade:	41 57                	push   %r15
  405ae0:	53                   	push   %rbx
  405ae1:	48 83 ec 58          	sub    $0x58,%rsp
  405ae5:	49 89 d4             	mov    %rdx,%r12
  405ae8:	4c 63 3d 01 20 02 00 	movslq 0x22001(%rip),%r15        # 427af0 <np>
  405aef:	48 89 f3             	mov    %rsi,%rbx
  405af2:	48 89 3c 24          	mov    %rdi,(%rsp)
  405af6:	4d 85 ff             	test   %r15,%r15
  405af9:	0f 85 95 02 00 00    	jne    405d94 <_Z11gatherStatslRlRd+0x2c4>
  405aff:	45 33 f6             	xor    %r14d,%r14d
  405b02:	4c 89 74 24 10       	mov    %r14,0x10(%rsp)
  405b07:	33 c0                	xor    %eax,%eax
  405b09:	4c 89 74 24 20       	mov    %r14,0x20(%rsp)
  405b0e:	48 89 44 24 18       	mov    %rax,0x18(%rsp)
  405b13:	be 01 00 00 00       	mov    $0x1,%esi
  405b18:	68 00 00 00 44       	pushq  $0x44000000
  405b1d:	6a 00                	pushq  $0x0
  405b1f:	ba 07 08 00 4c       	mov    $0x4c000807,%edx
  405b24:	48 8d 7c 24 10       	lea    0x10(%rsp),%rdi
  405b29:	4c 89 f1             	mov    %r14,%rcx
  405b2c:	41 89 f0             	mov    %esi,%r8d
  405b2f:	41 89 d1             	mov    %edx,%r9d
  405b32:	c5 f8 77             	vzeroupper 
  405b35:	e8 96 d6 ff ff       	callq  4031d0 <MPI_Gather@plt>
  405b3a:	48 83 c4 10          	add    $0x10,%rsp
  405b3e:	48 8b 7c 24 10       	mov    0x10(%rsp),%rdi
  405b43:	83 3d aa 1f 02 00 00 	cmpl   $0x0,0x21faa(%rip)        # 427af4 <rank>
  405b4a:	0f 85 f9 01 00 00    	jne    405d49 <_Z11gatherStatslRlRd+0x279>
  405b50:	8b 15 9a 1f 02 00    	mov    0x21f9a(%rip),%edx        # 427af0 <np>
  405b56:	33 c0                	xor    %eax,%eax
  405b58:	c4 41 31 57 c9       	vxorpd %xmm9,%xmm9,%xmm9
  405b5d:	85 d2                	test   %edx,%edx
  405b5f:	0f 8e 0d 02 00 00    	jle    405d72 <_Z11gatherStatslRlRd+0x2a2>
  405b65:	c5 d5 57 ed          	vxorpd %ymm5,%ymm5,%ymm5
  405b69:	c5 fd 28 c5          	vmovapd %ymm5,%ymm0
  405b6d:	c5 dd ef e4          	vpxor  %ymm4,%ymm4,%ymm4
  405b71:	83 fa 10             	cmp    $0x10,%edx
  405b74:	0f 8c f1 01 00 00    	jl     405d6b <_Z11gatherStatslRlRd+0x29b>
  405b7a:	49 89 f8             	mov    %rdi,%r8
  405b7d:	49 83 e0 1f          	and    $0x1f,%r8
  405b81:	41 f7 c0 07 00 00 00 	test   $0x7,%r8d
  405b88:	74 05                	je     405b8f <_Z11gatherStatslRlRd+0xbf>
  405b8a:	45 33 c0             	xor    %r8d,%r8d
  405b8d:	eb 17                	jmp    405ba6 <_Z11gatherStatslRlRd+0xd6>
  405b8f:	45 85 c0             	test   %r8d,%r8d
  405b92:	74 12                	je     405ba6 <_Z11gatherStatslRlRd+0xd6>
  405b94:	41 f7 d8             	neg    %r8d
  405b97:	41 83 c0 20          	add    $0x20,%r8d
  405b9b:	41 c1 e8 03          	shr    $0x3,%r8d
  405b9f:	41 3b d0             	cmp    %r8d,%edx
  405ba2:	44 0f 4c c2          	cmovl  %edx,%r8d
  405ba6:	89 d0                	mov    %edx,%eax
  405ba8:	41 2b c0             	sub    %r8d,%eax
  405bab:	83 e0 0f             	and    $0xf,%eax
  405bae:	f7 d8                	neg    %eax
  405bb0:	03 c2                	add    %edx,%eax
  405bb2:	41 83 f8 01          	cmp    $0x1,%r8d
  405bb6:	72 54                	jb     405c0c <_Z11gatherStatslRlRd+0x13c>
  405bb8:	c5 fa 6f 1d c0 b7 01 	vmovdqu 0x1b7c0(%rip),%xmm3        # 421380 <_IO_stdin_used+0x380>
  405bbf:	00 
  405bc0:	33 f6                	xor    %esi,%esi
  405bc2:	c5 fa 6f 15 c6 b7 01 	vmovdqu 0x1b7c6(%rip),%xmm2        # 421390 <_IO_stdin_used+0x390>
  405bc9:	00 
  405bca:	49 63 c8             	movslq %r8d,%rcx
  405bcd:	62 d2 7d 08 7c c8    	vpbroadcastd %r8d,%xmm1
  405bd3:	62 f1 75 08 66 ca    	vpcmpgtd %xmm2,%xmm1,%k1
  405bd9:	c5 e9 fe d3          	vpaddd %xmm3,%xmm2,%xmm2
  405bdd:	62 71 fe a9 6f 04 f7 	vmovdqu64 (%rdi,%rsi,8),%ymm8{%k1}{z}
  405be4:	48 83 c6 04          	add    $0x4,%rsi
  405be8:	62 d1 fe 28 e6 f0    	vcvtqq2pd %ymm8,%ymm6
  405bee:	62 d1 dd 29 d4 e0    	vpaddq %ymm8,%ymm4,%ymm4{%k1}
  405bf4:	c5 cd 59 fe          	vmulpd %ymm6,%ymm6,%ymm7
  405bf8:	62 f1 fd 29 58 c7    	vaddpd %ymm7,%ymm0,%ymm0{%k1}
  405bfe:	48 3b f1             	cmp    %rcx,%rsi
  405c01:	72 d0                	jb     405bd3 <_Z11gatherStatslRlRd+0x103>
  405c03:	41 3b d0             	cmp    %r8d,%edx
  405c06:	0f 84 da 00 00 00    	je     405ce6 <_Z11gatherStatslRlRd+0x216>
  405c0c:	41 8d 48 10          	lea    0x10(%r8),%ecx
  405c10:	3b c1                	cmp    %ecx,%eax
  405c12:	7c 72                	jl     405c86 <_Z11gatherStatslRlRd+0x1b6>
  405c14:	4d 63 c0             	movslq %r8d,%r8
  405c17:	48 63 c8             	movslq %eax,%rcx
  405c1a:	66 0f 1f 44 00 00    	nopw   0x0(%rax,%rax,1)
  405c20:	c4 a1 7e 6f 1c c7    	vmovdqu (%rdi,%r8,8),%ymm3
  405c26:	c4 a1 7e 6f 74 c7 20 	vmovdqu 0x20(%rdi,%r8,8),%ymm6
  405c2d:	c4 a1 7e 6f 7c c7 40 	vmovdqu 0x40(%rdi,%r8,8),%ymm7
  405c34:	c4 21 7e 6f 54 c7 60 	vmovdqu 0x60(%rdi,%r8,8),%ymm10
  405c3b:	c5 dd d4 e3          	vpaddq %ymm3,%ymm4,%ymm4
  405c3f:	62 f1 fe 28 e6 cb    	vcvtqq2pd %ymm3,%ymm1
  405c45:	62 f1 fe 28 e6 d6    	vcvtqq2pd %ymm6,%ymm2
  405c4b:	c5 5d d4 c6          	vpaddq %ymm6,%ymm4,%ymm8
  405c4f:	c4 e2 f5 a8 c8       	vfmadd213pd %ymm0,%ymm1,%ymm1
  405c54:	c4 e2 ed a8 d5       	vfmadd213pd %ymm5,%ymm2,%ymm2
  405c59:	c4 41 45 d4 c8       	vpaddq %ymm8,%ymm7,%ymm9
  405c5e:	62 f1 fe 28 e6 c7    	vcvtqq2pd %ymm7,%ymm0
  405c64:	62 d1 fe 28 e6 ea    	vcvtqq2pd %ymm10,%ymm5
  405c6a:	c4 c1 35 d4 e2       	vpaddq %ymm10,%ymm9,%ymm4
  405c6f:	c4 e2 fd a8 c1       	vfmadd213pd %ymm1,%ymm0,%ymm0
  405c74:	c4 e2 d5 a8 ea       	vfmadd213pd %ymm2,%ymm5,%ymm5
  405c79:	49 83 c0 10          	add    $0x10,%r8
  405c7d:	4c 3b c1             	cmp    %rcx,%r8
  405c80:	72 9e                	jb     405c20 <_Z11gatherStatslRlRd+0x150>
  405c82:	c5 fd 58 c5          	vaddpd %ymm5,%ymm0,%ymm0
  405c86:	8d 48 01             	lea    0x1(%rax),%ecx
  405c89:	3b ca                	cmp    %edx,%ecx
  405c8b:	77 59                	ja     405ce6 <_Z11gatherStatslRlRd+0x216>
  405c8d:	4c 63 c0             	movslq %eax,%r8
  405c90:	f7 d8                	neg    %eax
  405c92:	03 c2                	add    %edx,%eax
  405c94:	33 f6                	xor    %esi,%esi
  405c96:	62 f2 7d 08 7c c8    	vpbroadcastd %eax,%xmm1
  405c9c:	c5 fa 6f 1d dc b6 01 	vmovdqu 0x1b6dc(%rip),%xmm3        # 421380 <_IO_stdin_used+0x380>
  405ca3:	00 
  405ca4:	c5 fa 6f 15 e4 b6 01 	vmovdqu 0x1b6e4(%rip),%xmm2        # 421390 <_IO_stdin_used+0x390>
  405cab:	00 
  405cac:	48 63 c2             	movslq %edx,%rax
  405caf:	4a 8d 0c c7          	lea    (%rdi,%r8,8),%rcx
  405cb3:	49 2b c0             	sub    %r8,%rax
  405cb6:	62 f1 75 08 66 ca    	vpcmpgtd %xmm2,%xmm1,%k1
  405cbc:	c5 e9 fe d3          	vpaddd %xmm3,%xmm2,%xmm2
  405cc0:	62 f1 fe a9 6f 3c f1 	vmovdqu64 (%rcx,%rsi,8),%ymm7{%k1}{z}
  405cc7:	48 83 c6 04          	add    $0x4,%rsi
  405ccb:	62 f1 fe 28 e6 ef    	vcvtqq2pd %ymm7,%ymm5
  405cd1:	62 f1 dd 29 d4 e7    	vpaddq %ymm7,%ymm4,%ymm4{%k1}
  405cd7:	c5 d5 59 f5          	vmulpd %ymm5,%ymm5,%ymm6
  405cdb:	62 f1 fd 29 58 c6    	vaddpd %ymm6,%ymm0,%ymm0{%k1}
  405ce1:	48 3b f0             	cmp    %rax,%rsi
  405ce4:	72 d0                	jb     405cb6 <_Z11gatherStatslRlRd+0x1e6>
  405ce6:	c4 e3 7d 19 c6 01    	vextractf128 $0x1,%ymm0,%xmm6
  405cec:	c5 f9 58 fe          	vaddpd %xmm6,%xmm0,%xmm7
  405cf0:	c5 41 15 c7          	vunpckhpd %xmm7,%xmm7,%xmm8
  405cf4:	c4 41 43 58 c8       	vaddsd %xmm8,%xmm7,%xmm9
  405cf9:	c4 e3 7d 19 e1 01    	vextractf128 $0x1,%ymm4,%xmm1
  405cff:	c5 d9 d4 d1          	vpaddq %xmm1,%xmm4,%xmm2
  405d03:	c5 e1 73 da 08       	vpsrldq $0x8,%xmm2,%xmm3
  405d08:	c5 e9 d4 eb          	vpaddq %xmm3,%xmm2,%xmm5
  405d0c:	c4 e1 f9 7e e8       	vmovq  %xmm5,%rax
  405d11:	48 89 03             	mov    %rax,(%rbx)
  405d14:	c5 f9 57 c0          	vxorpd %xmm0,%xmm0,%xmm0
  405d18:	c5 e9 57 d2          	vxorpd %xmm2,%xmm2,%xmm2
  405d1c:	c4 e1 fb 2a c0       	vcvtsi2sd %rax,%xmm0,%xmm0
  405d21:	c5 eb 2a d2          	vcvtsi2sd %edx,%xmm2,%xmm2
  405d25:	c5 fb 59 c8          	vmulsd %xmm0,%xmm0,%xmm1
  405d29:	c5 f3 5e da          	vdivsd %xmm2,%xmm1,%xmm3
  405d2d:	ff ca                	dec    %edx
  405d2f:	c5 d1 57 ed          	vxorpd %xmm5,%xmm5,%xmm5
  405d33:	c5 d3 2a ea          	vcvtsi2sd %edx,%xmm5,%xmm5
  405d37:	c5 b3 5c e3          	vsubsd %xmm3,%xmm9,%xmm4
  405d3b:	c5 db 5e f5          	vdivsd %xmm5,%xmm4,%xmm6
  405d3f:	c5 cb 51 f6          	vsqrtsd %xmm6,%xmm6,%xmm6
  405d43:	c4 c1 7b 11 34 24    	vmovsd %xmm6,(%r12)
  405d49:	48 85 ff             	test   %rdi,%rdi
  405d4c:	74 08                	je     405d56 <_Z11gatherStatslRlRd+0x286>
  405d4e:	c5 f8 77             	vzeroupper 
  405d51:	e8 da d4 ff ff       	callq  403230 <_ZdlPv@plt>
  405d56:	c5 f8 77             	vzeroupper 
  405d59:	48 83 c4 58          	add    $0x58,%rsp
  405d5d:	5b                   	pop    %rbx
  405d5e:	41 5f                	pop    %r15
  405d60:	41 5e                	pop    %r14
  405d62:	41 5d                	pop    %r13
  405d64:	41 5c                	pop    %r12
  405d66:	48 89 ec             	mov    %rbp,%rsp
  405d69:	5d                   	pop    %rbp
  405d6a:	c3                   	retq   
  405d6b:	33 c0                	xor    %eax,%eax
  405d6d:	e9 14 ff ff ff       	jmpq   405c86 <_Z11gatherStatslRlRd+0x1b6>
  405d72:	48 c7 03 00 00 00 00 	movq   $0x0,(%rbx)
  405d79:	eb 99                	jmp    405d14 <_Z11gatherStatslRlRd+0x244>
  405d7b:	48 89 44 24 08       	mov    %rax,0x8(%rsp)
  405d80:	48 8d 7c 24 10       	lea    0x10(%rsp),%rdi
  405d85:	e8 46 04 00 00       	callq  4061d0 <_ZNSt6vectorIlSaIlEED1Ev>
  405d8a:	48 8b 7c 24 08       	mov    0x8(%rsp),%rdi
  405d8f:	e8 bc d6 ff ff       	callq  403450 <_Unwind_Resume@plt>
  405d94:	48 ba ff ff ff ff ff 	movabs $0x1fffffffffffffff,%rdx
  405d9b:	ff ff 1f 
  405d9e:	33 c0                	xor    %eax,%eax
  405da0:	48 89 44 24 20       	mov    %rax,0x20(%rsp)
  405da5:	48 89 44 24 18       	mov    %rax,0x18(%rsp)
  405daa:	48 89 44 24 10       	mov    %rax,0x10(%rsp)
  405daf:	4c 3b fa             	cmp    %rdx,%r15
  405db2:	0f 87 b8 00 00 00    	ja     405e70 <_Z11gatherStatslRlRd+0x3a0>
  405db8:	4a 8d 3c fd 00 00 00 	lea    0x0(,%r15,8),%rdi
  405dbf:	00 
  405dc0:	48 89 7c 24 08       	mov    %rdi,0x8(%rsp)
  405dc5:	e8 86 d4 ff ff       	callq  403250 <_Znwm@plt>
  405dca:	49 89 c6             	mov    %rax,%r14
  405dcd:	4c 89 74 24 10       	mov    %r14,0x10(%rsp)
  405dd2:	4f 8d 2c fe          	lea    (%r14,%r15,8),%r13
  405dd6:	4c 89 6c 24 20       	mov    %r13,0x20(%rsp)
  405ddb:	4c 89 f0             	mov    %r14,%rax
  405dde:	4d 85 ff             	test   %r15,%r15
  405de1:	0f 86 27 fd ff ff    	jbe    405b0e <_Z11gatherStatslRlRd+0x3e>
  405de7:	49 83 ff 0c          	cmp    $0xc,%r15
  405deb:	76 1c                	jbe    405e09 <_Z11gatherStatslRlRd+0x339>
  405ded:	4c 89 f7             	mov    %r14,%rdi
  405df0:	33 f6                	xor    %esi,%esi
  405df2:	48 8b 54 24 08       	mov    0x8(%rsp),%rdx
  405df7:	4c 89 74 24 18       	mov    %r14,0x18(%rsp)
  405dfc:	e8 cf 0b 00 00       	callq  4069d0 <_intel_fast_memset>
  405e01:	4c 89 e8             	mov    %r13,%rax
  405e04:	e9 05 fd ff ff       	jmpq   405b0e <_Z11gatherStatslRlRd+0x3e>
  405e09:	49 83 ff 04          	cmp    $0x4,%r15
  405e0d:	72 40                	jb     405e4f <_Z11gatherStatslRlRd+0x37f>
  405e0f:	4c 89 f8             	mov    %r15,%rax
  405e12:	33 d2                	xor    %edx,%edx
  405e14:	c5 fd ef c0          	vpxor  %ymm0,%ymm0,%ymm0
  405e18:	48 83 e0 fc          	and    $0xfffffffffffffffc,%rax
  405e1c:	c4 c1 7e 7f 04 d6    	vmovdqu %ymm0,(%r14,%rdx,8)
  405e22:	48 83 c2 04          	add    $0x4,%rdx
  405e26:	48 3b d0             	cmp    %rax,%rdx
  405e29:	72 f1                	jb     405e1c <_Z11gatherStatslRlRd+0x34c>
  405e2b:	33 f6                	xor    %esi,%esi
  405e2d:	48 8d 50 01          	lea    0x1(%rax),%rdx
  405e31:	49 3b d7             	cmp    %r15,%rdx
  405e34:	77 cb                	ja     405e01 <_Z11gatherStatslRlRd+0x331>
  405e36:	4c 2b f8             	sub    %rax,%r15
  405e39:	49 8d 14 c6          	lea    (%r14,%rax,8),%rdx
  405e3d:	48 c7 04 f2 00 00 00 	movq   $0x0,(%rdx,%rsi,8)
  405e44:	00 
  405e45:	48 ff c6             	inc    %rsi
  405e48:	49 3b f7             	cmp    %r15,%rsi
  405e4b:	72 f0                	jb     405e3d <_Z11gatherStatslRlRd+0x36d>
  405e4d:	eb b2                	jmp    405e01 <_Z11gatherStatslRlRd+0x331>
  405e4f:	33 c0                	xor    %eax,%eax
  405e51:	eb d8                	jmp    405e2b <_Z11gatherStatslRlRd+0x35b>
  405e53:	48 89 44 24 08       	mov    %rax,0x8(%rsp)
  405e58:	48 8d 7c 24 10       	lea    0x10(%rsp),%rdi
  405e5d:	e8 3e 03 00 00       	callq  4061a0 <_ZNSt12_Vector_baseIlSaIlEE12_Vector_implD1Ev>
  405e62:	48 8d 3c 24          	lea    (%rsp),%rdi
  405e66:	e8 45 03 00 00       	callq  4061b0 <_ZNSaIlED1Ev>
  405e6b:	e9 1a ff ff ff       	jmpq   405d8a <_Z11gatherStatslRlRd+0x2ba>
  405e70:	e8 4b d2 ff ff       	callq  4030c0 <_ZSt17__throw_bad_allocv@plt>
  405e75:	0f 1f 40 00          	nopl   0x0(%rax)
  405e79:	0f 1f 80 00 00 00 00 	nopl   0x0(%rax)

0000000000405e80 <_Z7getTimev>:
  405e80:	56                   	push   %rsi
  405e81:	e8 5a d4 ff ff       	callq  4032e0 <MPI_Wtime@plt>
  405e86:	c5 fb 5c 05 5a 1c 02 	vsubsd 0x21c5a(%rip),%xmm0,%xmm0        # 427ae8 <t0>
  405e8d:	00 
  405e8e:	59                   	pop    %rcx
  405e8f:	c3                   	retq   

0000000000405e90 <_Z9parseSizePKcPm>:
  405e90:	41 57                	push   %r15
  405e92:	53                   	push   %rbx
  405e93:	55                   	push   %rbp
  405e94:	48 83 ec 10          	sub    $0x10,%rsp
  405e98:	48 89 fb             	mov    %rdi,%rbx
  405e9b:	49 89 f7             	mov    %rsi,%r15
  405e9e:	48 85 db             	test   %rbx,%rbx
  405ea1:	74 34                	je     405ed7 <_Z9parseSizePKcPm+0x47>
  405ea3:	0f be 2b             	movsbl (%rbx),%ebp
  405ea6:	85 ed                	test   %ebp,%ebp
  405ea8:	74 2d                	je     405ed7 <_Z9parseSizePKcPm+0x47>
  405eaa:	89 ef                	mov    %ebp,%edi
  405eac:	e8 5f d3 ff ff       	callq  403210 <isdigit@plt>
  405eb1:	85 c0                	test   %eax,%eax
  405eb3:	75 05                	jne    405eba <_Z9parseSizePKcPm+0x2a>
  405eb5:	83 fd 2e             	cmp    $0x2e,%ebp
  405eb8:	75 1d                	jne    405ed7 <_Z9parseSizePKcPm+0x47>
  405eba:	48 89 df             	mov    %rbx,%rdi
  405ebd:	be 48 10 42 00       	mov    $0x421048,%esi
  405ec2:	33 c0                	xor    %eax,%eax
  405ec4:	48 8d 14 24          	lea    (%rsp),%rdx
  405ec8:	48 8d 4c 24 08       	lea    0x8(%rsp),%rcx
  405ecd:	e8 be d2 ff ff       	callq  403190 <sscanf@plt>
  405ed2:	83 f8 01             	cmp    $0x1,%eax
  405ed5:	74 0e                	je     405ee5 <_Z9parseSizePKcPm+0x55>
  405ed7:	b8 01 00 00 00       	mov    $0x1,%eax
  405edc:	48 83 c4 10          	add    $0x10,%rsp
  405ee0:	5d                   	pop    %rbp
  405ee1:	5b                   	pop    %rbx
  405ee2:	41 5f                	pop    %r15
  405ee4:	c3                   	retq   
  405ee5:	48 63 44 24 08       	movslq 0x8(%rsp),%rax
  405eea:	0f be 3c 03          	movsbl (%rbx,%rax,1),%edi
  405eee:	e8 7d d4 ff ff       	callq  403370 <tolower@plt>
  405ef3:	48 0f be c0          	movsbq %al,%rax
  405ef7:	85 c0                	test   %eax,%eax
  405ef9:	74 29                	je     405f24 <_Z9parseSizePKcPm+0x94>
  405efb:	33 d2                	xor    %edx,%edx
  405efd:	83 f8 6b             	cmp    $0x6b,%eax
  405f00:	74 18                	je     405f1a <_Z9parseSizePKcPm+0x8a>
  405f02:	ba 01 00 00 00       	mov    $0x1,%edx
  405f07:	3a 82 e8 13 42 00    	cmp    0x4213e8(%rdx),%al
  405f0d:	74 0b                	je     405f1a <_Z9parseSizePKcPm+0x8a>
  405f0f:	48 ff c2             	inc    %rdx
  405f12:	48 83 fa 06          	cmp    $0x6,%rdx
  405f16:	7c ef                	jl     405f07 <_Z9parseSizePKcPm+0x77>
  405f18:	74 bd                	je     405ed7 <_Z9parseSizePKcPm+0x47>
  405f1a:	48 8b 04 d5 b8 13 42 	mov    0x4213b8(,%rdx,8),%rax
  405f21:	00 
  405f22:	eb 05                	jmp    405f29 <_Z9parseSizePKcPm+0x99>
  405f24:	b8 01 00 00 00       	mov    $0x1,%eax
  405f29:	c5 f9 57 c0          	vxorpd %xmm0,%xmm0,%xmm0
  405f2d:	62 f1 ff 08 7b c0    	vcvtusi2sd %rax,%xmm0,%xmm0
  405f33:	c5 fb 59 0c 24       	vmulsd (%rsp),%xmm0,%xmm1
  405f38:	62 f1 ff 08 78 c1    	vcvttsd2usi %xmm1,%rax
  405f3e:	49 89 07             	mov    %rax,(%r15)
  405f41:	33 c0                	xor    %eax,%eax
  405f43:	48 83 c4 10          	add    $0x10,%rsp
  405f47:	5d                   	pop    %rbp
  405f48:	5b                   	pop    %rbx
  405f49:	41 5f                	pop    %r15
  405f4b:	c3                   	retq   
  405f4c:	0f 1f 40 00          	nopl   0x0(%rax)

0000000000405f50 <_Z12getNodeCountv>:
  405f50:	48 83 ec 18          	sub    $0x18,%rsp
  405f54:	bf 00 00 00 44       	mov    $0x44000000,%edi
  405f59:	be 01 00 00 00       	mov    $0x1,%esi
  405f5e:	33 d2                	xor    %edx,%edx
  405f60:	b9 00 00 00 1c       	mov    $0x1c000000,%ecx
  405f65:	4c 8d 04 24          	lea    (%rsp),%r8
  405f69:	e8 22 d3 ff ff       	callq  403290 <MPI_Comm_split_type@plt>
  405f6e:	8b 3c 24             	mov    (%rsp),%edi
  405f71:	48 8d 74 24 04       	lea    0x4(%rsp),%rsi
  405f76:	e8 c5 d3 ff ff       	callq  403340 <MPI_Comm_rank@plt>
  405f7b:	83 7c 24 04 00       	cmpl   $0x0,0x4(%rsp)
  405f80:	75 0a                	jne    405f8c <_Z12getNodeCountv+0x3c>
  405f82:	c7 44 24 08 01 00 00 	movl   $0x1,0x8(%rsp)
  405f89:	00 
  405f8a:	eb 08                	jmp    405f94 <_Z12getNodeCountv+0x44>
  405f8c:	c7 44 24 08 00 00 00 	movl   $0x0,0x8(%rsp)
  405f93:	00 
  405f94:	ba 01 00 00 00       	mov    $0x1,%edx
  405f99:	48 8d 7c 24 08       	lea    0x8(%rsp),%rdi
  405f9e:	b9 05 04 00 4c       	mov    $0x4c000405,%ecx
  405fa3:	48 8d 74 24 0c       	lea    0xc(%rsp),%rsi
  405fa8:	41 b8 03 00 00 58    	mov    $0x58000003,%r8d
  405fae:	41 b9 00 00 00 44    	mov    $0x44000000,%r9d
  405fb4:	e8 17 d3 ff ff       	callq  4032d0 <MPI_Allreduce@plt>
  405fb9:	48 8d 3c 24          	lea    (%rsp),%rdi
  405fbd:	e8 2e d4 ff ff       	callq  4033f0 <MPI_Comm_free@plt>
  405fc2:	8b 44 24 0c          	mov    0xc(%rsp),%eax
  405fc6:	48 83 c4 18          	add    $0x18,%rsp
  405fca:	c3                   	retq   
  405fcb:	0f 1f 44 00 00       	nopl   0x0(%rax,%rax,1)

0000000000405fd0 <_Z21getSimulatedNodeCountv>:
  405fd0:	56                   	push   %rsi
  405fd1:	bf 10 10 42 00       	mov    $0x421010,%edi
  405fd6:	e8 e5 d2 ff ff       	callq  4032c0 <getenv@plt>
  405fdb:	48 85 c0             	test   %rax,%rax
  405fde:	74 0b                	je     405feb <_Z21getSimulatedNodeCountv+0x1b>
  405fe0:	48 89 c1             	mov    %rax,%rcx
  405fe3:	ff 15 bf 0f 02 00    	callq  *0x20fbf(%rip)        # 426fa8 <.got+0x8>
  405fe9:	59                   	pop    %rcx
  405fea:	c3                   	retq   
  405feb:	bf d8 12 42 00       	mov    $0x4212d8,%edi
  405ff0:	e8 cb d2 ff ff       	callq  4032c0 <getenv@plt>
  405ff5:	48 85 c0             	test   %rax,%rax
  405ff8:	75 e6                	jne    405fe0 <_Z21getSimulatedNodeCountv+0x10>
  405ffa:	33 c0                	xor    %eax,%eax
  405ffc:	59                   	pop    %rcx
  405ffd:	c3                   	retq   
  405ffe:	66 90                	xchg   %ax,%ax

0000000000406000 <_Z9timestampB5cxx11i>:
  406000:	41 54                	push   %r12
  406002:	55                   	push   %rbp
  406003:	48 83 ec 68          	sub    $0x68,%rsp
  406007:	49 89 fc             	mov    %rdi,%r12
  40600a:	89 f5                	mov    %esi,%ebp
  40600c:	48 8d 7c 24 58       	lea    0x58(%rsp),%rdi
  406011:	e8 0a d2 ff ff       	callq  403220 <time@plt>
  406016:	85 ed                	test   %ebp,%ebp
  406018:	74 11                	je     40602b <_Z9timestampB5cxx11i+0x2b>
  40601a:	48 8d 7c 24 58       	lea    0x58(%rsp),%rdi
  40601f:	48 8d 74 24 08       	lea    0x8(%rsp),%rsi
  406024:	e8 97 d4 ff ff       	callq  4034c0 <gmtime_r@plt>
  406029:	eb 0f                	jmp    40603a <_Z9timestampB5cxx11i+0x3a>
  40602b:	48 8d 7c 24 58       	lea    0x58(%rsp),%rdi
  406030:	48 8d 74 24 08       	lea    0x8(%rsp),%rsi
  406035:	e8 f6 d0 ff ff       	callq  403130 <localtime_r@plt>
  40603a:	be 14 00 00 00       	mov    $0x14,%esi
  40603f:	48 8d 7c 24 40       	lea    0x40(%rsp),%rdi
  406044:	ba e8 12 42 00       	mov    $0x4212e8,%edx
  406049:	48 8d 4c 24 08       	lea    0x8(%rsp),%rcx
  40604e:	e8 8d d1 ff ff       	callq  4031e0 <strftime@plt>
  406053:	48 8d 54 24 40       	lea    0x40(%rsp),%rdx
  406058:	49 8d 44 24 10       	lea    0x10(%r12),%rax
  40605d:	49 89 04 24          	mov    %rax,(%r12)
  406061:	48 89 d1             	mov    %rdx,%rcx
  406064:	48 83 e2 f0          	and    $0xfffffffffffffff0,%rdx
  406068:	c5 f9 ef c0          	vpxor  %xmm0,%xmm0,%xmm0
  40606c:	c5 f9 74 02          	vpcmpeqb (%rdx),%xmm0,%xmm0
  406070:	c5 f9 d7 c0          	vpmovmskb %xmm0,%eax
  406074:	83 e1 0f             	and    $0xf,%ecx
  406077:	d3 e8                	shr    %cl,%eax
  406079:	0f bc c0             	bsf    %eax,%eax
  40607c:	75 0c                	jne    40608a <_Z9timestampB5cxx11i+0x8a>
  40607e:	48 89 d0             	mov    %rdx,%rax
  406081:	48 03 d1             	add    %rcx,%rdx
  406084:	ff 15 26 0f 02 00    	callq  *0x20f26(%rip)        # 426fb0 <.got+0x10>
  40608a:	48 89 c5             	mov    %rax,%rbp
  40608d:	48 89 6c 24 60       	mov    %rbp,0x60(%rsp)
  406092:	48 89 e9             	mov    %rbp,%rcx
  406095:	48 83 fd 0f          	cmp    $0xf,%rbp
  406099:	77 06                	ja     4060a1 <_Z9timestampB5cxx11i+0xa1>
  40609b:	49 8b 3c 24          	mov    (%r12),%rdi
  40609f:	eb 20                	jmp    4060c1 <_Z9timestampB5cxx11i+0xc1>
  4060a1:	4c 89 e7             	mov    %r12,%rdi
  4060a4:	48 8d 74 24 60       	lea    0x60(%rsp),%rsi
  4060a9:	33 d2                	xor    %edx,%edx
  4060ab:	e8 c0 d3 ff ff       	callq  403470 <_ZNSt7__cxx1112basic_stringIcSt11char_traitsIcESaIcEE9_M_createERmm@plt>
  4060b0:	48 89 c7             	mov    %rax,%rdi
  4060b3:	48 8b 4c 24 60       	mov    0x60(%rsp),%rcx
  4060b8:	49 89 3c 24          	mov    %rdi,(%r12)
  4060bc:	49 89 4c 24 10       	mov    %rcx,0x10(%r12)
  4060c1:	48 83 fd 01          	cmp    $0x1,%rbp
  4060c5:	75 0c                	jne    4060d3 <_Z9timestampB5cxx11i+0xd3>
  4060c7:	8a 44 24 40          	mov    0x40(%rsp),%al
  4060cb:	88 07                	mov    %al,(%rdi)
  4060cd:	49 8b 3c 24          	mov    (%r12),%rdi
  4060d1:	eb 1b                	jmp    4060ee <_Z9timestampB5cxx11i+0xee>
  4060d3:	48 85 ed             	test   %rbp,%rbp
  4060d6:	74 16                	je     4060ee <_Z9timestampB5cxx11i+0xee>
  4060d8:	48 89 ea             	mov    %rbp,%rdx
  4060db:	48 8d 74 24 40       	lea    0x40(%rsp),%rsi
  4060e0:	e8 3b 07 00 00       	callq  406820 <_intel_fast_memcpy>
  4060e5:	48 8b 4c 24 60       	mov    0x60(%rsp),%rcx
  4060ea:	49 8b 3c 24          	mov    (%r12),%rdi
  4060ee:	49 89 4c 24 08       	mov    %rcx,0x8(%r12)
  4060f3:	c6 04 0f 00          	movb   $0x0,(%rdi,%rcx,1)
  4060f7:	48 83 c4 68          	add    $0x68,%rsp
  4060fb:	5d                   	pop    %rbp
  4060fc:	41 5c                	pop    %r12
  4060fe:	c3                   	retq   
  4060ff:	48 89 04 24          	mov    %rax,(%rsp)
  406103:	4c 89 e7             	mov    %r12,%rdi
  406106:	e8 c5 01 00 00       	callq  4062d0 <_ZNSt7__cxx1112basic_stringIcSt11char_traitsIcESaIcEE12_Alloc_hiderD1Ev>
  40610b:	48 8b 3c 24          	mov    (%rsp),%rdi
  40610f:	e8 3c d3 ff ff       	callq  403450 <_Unwind_Resume@plt>
  406114:	0f 1f 44 00 00       	nopl   0x0(%rax,%rax,1)
  406119:	0f 1f 80 00 00 00 00 	nopl   0x0(%rax)

0000000000406120 <_Z10fillBufferRSt6vectorIlSaIlEEl>:
  406120:	48 8d 56 08          	lea    0x8(%rsi),%rdx
  406124:	48 8b 4f 08          	mov    0x8(%rdi),%rcx
  406128:	48 8b 07             	mov    (%rdi),%rax
  40612b:	48 2b c8             	sub    %rax,%rcx
  40612e:	48 c1 f9 03          	sar    $0x3,%rcx
  406132:	74 43                	je     406177 <_Z10fillBufferRSt6vectorIlSaIlEEl+0x57>
  406134:	45 33 c0             	xor    %r8d,%r8d
  406137:	33 c9                	xor    %ecx,%ecx
  406139:	49 83 c0 10          	add    $0x10,%r8
  40613d:	48 83 c1 02          	add    $0x2,%rcx
  406141:	49 89 74 00 f0       	mov    %rsi,-0x10(%r8,%rax,1)
  406146:	4c 8d 49 ff          	lea    -0x1(%rcx),%r9
  40614a:	4c 8b 57 08          	mov    0x8(%rdi),%r10
  40614e:	4c 2b d0             	sub    %rax,%r10
  406151:	49 c1 fa 03          	sar    $0x3,%r10
  406155:	4d 3b ca             	cmp    %r10,%r9
  406158:	73 1d                	jae    406177 <_Z10fillBufferRSt6vectorIlSaIlEEl+0x57>
  40615a:	49 89 54 00 f8       	mov    %rdx,-0x8(%r8,%rax,1)
  40615f:	48 83 c2 10          	add    $0x10,%rdx
  406163:	4c 8b 4f 08          	mov    0x8(%rdi),%r9
  406167:	48 83 c6 10          	add    $0x10,%rsi
  40616b:	4c 2b c8             	sub    %rax,%r9
  40616e:	49 c1 f9 03          	sar    $0x3,%r9
  406172:	49 3b c9             	cmp    %r9,%rcx
  406175:	72 c2                	jb     406139 <_Z10fillBufferRSt6vectorIlSaIlEEl+0x19>
  406177:	c3                   	retq   
  406178:	0f 1f 84 00 00 00 00 	nopl   0x0(%rax,%rax,1)
  40617f:	00 

0000000000406180 <_ZN9__gnu_cxx13new_allocatorIcED2Ev>:
  406180:	c3                   	retq   
  406181:	0f 1f 84 00 00 00 00 	nopl   0x0(%rax,%rax,1)
  406188:	00 
  406189:	0f 1f 80 00 00 00 00 	nopl   0x0(%rax)

0000000000406190 <_ZNSt12_Vector_baseIlSaIlEED1Ev>:
  406190:	48 8b 3f             	mov    (%rdi),%rdi
  406193:	48 85 ff             	test   %rdi,%rdi
  406196:	74 05                	je     40619d <_ZNSt12_Vector_baseIlSaIlEED1Ev+0xd>
  406198:	e9 93 d0 ff ff       	jmpq   403230 <_ZdlPv@plt>
  40619d:	c3                   	retq   
  40619e:	66 90                	xchg   %ax,%ax

00000000004061a0 <_ZNSt12_Vector_baseIlSaIlEE12_Vector_implD1Ev>:
  4061a0:	c3                   	retq   
  4061a1:	0f 1f 84 00 00 00 00 	nopl   0x0(%rax,%rax,1)
  4061a8:	00 
  4061a9:	0f 1f 80 00 00 00 00 	nopl   0x0(%rax)

00000000004061b0 <_ZNSaIlED1Ev>:
  4061b0:	c3                   	retq   
  4061b1:	0f 1f 84 00 00 00 00 	nopl   0x0(%rax,%rax,1)
  4061b8:	00 
  4061b9:	0f 1f 80 00 00 00 00 	nopl   0x0(%rax)

00000000004061c0 <_ZNSt12_Vector_baseIlSaIlEE19_M_get_Tp_allocatorEv>:
  4061c0:	48 89 f8             	mov    %rdi,%rax
  4061c3:	c3                   	retq   
  4061c4:	0f 1f 44 00 00       	nopl   0x0(%rax,%rax,1)
  4061c9:	0f 1f 80 00 00 00 00 	nopl   0x0(%rax)

00000000004061d0 <_ZNSt6vectorIlSaIlEED1Ev>:
  4061d0:	48 8b 3f             	mov    (%rdi),%rdi
  4061d3:	48 85 ff             	test   %rdi,%rdi
  4061d6:	74 05                	je     4061dd <_ZNSt6vectorIlSaIlEED1Ev+0xd>
  4061d8:	e9 53 d0 ff ff       	jmpq   403230 <_ZdlPv@plt>
  4061dd:	c3                   	retq   
  4061de:	66 90                	xchg   %ax,%ax

00000000004061e0 <_ZN7OptionsD1Ev>:
  4061e0:	53                   	push   %rbx
  4061e1:	48 89 fb             	mov    %rdi,%rbx
  4061e4:	48 8b 7b 20          	mov    0x20(%rbx),%rdi
  4061e8:	48 8d 43 30          	lea    0x30(%rbx),%rax
  4061ec:	48 3b f8             	cmp    %rax,%rdi
  4061ef:	74 05                	je     4061f6 <_ZN7OptionsD1Ev+0x16>
  4061f1:	e8 3a d0 ff ff       	callq  403230 <_ZdlPv@plt>
  4061f6:	48 8b 3b             	mov    (%rbx),%rdi
  4061f9:	48 83 c3 10          	add    $0x10,%rbx
  4061fd:	48 3b fb             	cmp    %rbx,%rdi
  406200:	74 06                	je     406208 <_ZN7OptionsD1Ev+0x28>
  406202:	5b                   	pop    %rbx
  406203:	e9 28 d0 ff ff       	jmpq   403230 <_ZdlPv@plt>
  406208:	5b                   	pop    %rbx
  406209:	c3                   	retq   
  40620a:	66 0f 1f 44 00 00    	nopw   0x0(%rax,%rax,1)

0000000000406210 <_ZN10IOOverTimeD1Ev>:
  406210:	48 8b 7f 08          	mov    0x8(%rdi),%rdi
  406214:	48 85 ff             	test   %rdi,%rdi
  406217:	74 05                	je     40621e <_ZN10IOOverTimeD1Ev+0xe>
  406219:	e9 12 d0 ff ff       	jmpq   403230 <_ZdlPv@plt>
  40621e:	c3                   	retq   
  40621f:	90                   	nop

0000000000406220 <_ZNSt6vectorIlSaIlEE16_Temporary_valueD1Ev>:
  406220:	c3                   	retq   
  406221:	0f 1f 84 00 00 00 00 	nopl   0x0(%rax,%rax,1)
  406228:	00 
  406229:	0f 1f 80 00 00 00 00 	nopl   0x0(%rax)

0000000000406230 <_ZNSt12_Vector_baseIlSaIlEE13_M_deallocateEPlm>:
  406230:	48 85 f6             	test   %rsi,%rsi
  406233:	74 08                	je     40623d <_ZNSt12_Vector_baseIlSaIlEE13_M_deallocateEPlm+0xd>
  406235:	48 89 f7             	mov    %rsi,%rdi
  406238:	e9 f3 cf ff ff       	jmpq   403230 <_ZdlPv@plt>
  40623d:	c3                   	retq   
  40623e:	66 90                	xchg   %ax,%ax

0000000000406240 <_ZNSt8ios_base9precisionEl>:
  406240:	48 8b 47 08          	mov    0x8(%rdi),%rax
  406244:	48 89 77 08          	mov    %rsi,0x8(%rdi)
  406248:	c3                   	retq   
  406249:	0f 1f 80 00 00 00 00 	nopl   0x0(%rax)

0000000000406250 <_ZNSt11char_traitsIcE6lengthEPKc>:
  406250:	56                   	push   %rsi
  406251:	48 89 fa             	mov    %rdi,%rdx
  406254:	48 89 d1             	mov    %rdx,%rcx
  406257:	48 83 e2 f0          	and    $0xfffffffffffffff0,%rdx
  40625b:	c5 f9 ef c0          	vpxor  %xmm0,%xmm0,%xmm0
  40625f:	c5 f9 74 02          	vpcmpeqb (%rdx),%xmm0,%xmm0
  406263:	c5 f9 d7 c0          	vpmovmskb %xmm0,%eax
  406267:	83 e1 0f             	and    $0xf,%ecx
  40626a:	d3 e8                	shr    %cl,%eax
  40626c:	0f bc c0             	bsf    %eax,%eax
  40626f:	75 0c                	jne    40627d <_ZNSt11char_traitsIcE6lengthEPKc+0x2d>
  406271:	48 89 d0             	mov    %rdx,%rax
  406274:	48 03 d1             	add    %rcx,%rdx
  406277:	ff 15 33 0d 02 00    	callq  *0x20d33(%rip)        # 426fb0 <.got+0x10>
  40627d:	59                   	pop    %rcx
  40627e:	c3                   	retq   
  40627f:	90                   	nop

0000000000406280 <_ZNSt7__cxx1115basic_stringbufIcSt11char_traitsIcESaIcEED1Ev>:
  406280:	41 54                	push   %r12
  406282:	49 89 fc             	mov    %rdi,%r12
  406285:	49 8b 7c 24 48       	mov    0x48(%r12),%rdi
  40628a:	49 8d 44 24 58       	lea    0x58(%r12),%rax
  40628f:	48 3b f8             	cmp    %rax,%rdi
  406292:	74 05                	je     406299 <_ZNSt7__cxx1115basic_stringbufIcSt11char_traitsIcESaIcEED1Ev+0x19>
  406294:	e8 97 cf ff ff       	callq  403230 <_ZdlPv@plt>
  406299:	49 c7 04 24 10 6c 42 	movq   $0x426c10,(%r12)
  4062a0:	00 
  4062a1:	49 83 c4 38          	add    $0x38,%r12
  4062a5:	4c 89 e7             	mov    %r12,%rdi
  4062a8:	41 5c                	pop    %r12
  4062aa:	e9 81 d0 ff ff       	jmpq   403330 <_ZNSt6localeD1Ev@plt>
  4062af:	90                   	nop

00000000004062b0 <_ZN9__gnu_cxx13new_allocatorIcEC2ERKS1_>:
  4062b0:	c3                   	retq   
  4062b1:	0f 1f 84 00 00 00 00 	nopl   0x0(%rax,%rax,1)
  4062b8:	00 
  4062b9:	0f 1f 80 00 00 00 00 	nopl   0x0(%rax)

00000000004062c0 <_ZN9__gnu_cxx13new_allocatorIcEC2Ev>:
  4062c0:	c3                   	retq   
  4062c1:	0f 1f 84 00 00 00 00 	nopl   0x0(%rax,%rax,1)
  4062c8:	00 
  4062c9:	0f 1f 80 00 00 00 00 	nopl   0x0(%rax)

00000000004062d0 <_ZNSt7__cxx1112basic_stringIcSt11char_traitsIcESaIcEE12_Alloc_hiderD1Ev>:
  4062d0:	c3                   	retq   
  4062d1:	0f 1f 84 00 00 00 00 	nopl   0x0(%rax,%rax,1)
  4062d8:	00 
  4062d9:	0f 1f 80 00 00 00 00 	nopl   0x0(%rax)

00000000004062e0 <_ZNSt14pointer_traitsIPKcE10pointer_toERS0_>:
  4062e0:	48 89 f8             	mov    %rdi,%rax
  4062e3:	c3                   	retq   
  4062e4:	0f 1f 44 00 00       	nopl   0x0(%rax,%rax,1)
  4062e9:	0f 1f 80 00 00 00 00 	nopl   0x0(%rax)

00000000004062f0 <_ZNSt6vectorIlSaIlEEC1Ev>:
  4062f0:	33 c0                	xor    %eax,%eax
  4062f2:	48 89 07             	mov    %rax,(%rdi)
  4062f5:	48 89 47 08          	mov    %rax,0x8(%rdi)
  4062f9:	48 89 47 10          	mov    %rax,0x10(%rdi)
  4062fd:	c3                   	retq   
  4062fe:	66 90                	xchg   %ax,%ax

0000000000406300 <_ZSt5fixedRSt8ios_base>:
  406300:	48 89 f8             	mov    %rdi,%rax
  406303:	8b 57 18             	mov    0x18(%rdi),%edx
  406306:	81 e2 fb fe ff ff    	and    $0xfffffefb,%edx
  40630c:	83 c2 04             	add    $0x4,%edx
  40630f:	89 57 18             	mov    %edx,0x18(%rdi)
  406312:	c3                   	retq   
  406313:	0f 1f 44 00 00       	nopl   0x0(%rax,%rax,1)
  406318:	0f 1f 84 00 00 00 00 	nopl   0x0(%rax,%rax,1)
  40631f:	00 

0000000000406320 <_ZSt10__fill_n_aIPlmlEN9__gnu_cxx11__enable_ifIXsr3std11__is_scalarIT1_EE7__valueET_E6__typeES4_T0_RKS3_>:
  406320:	49 89 f0             	mov    %rsi,%r8
  406323:	48 8b 32             	mov    (%rdx),%rsi
  406326:	48 89 f9             	mov    %rdi,%rcx
  406329:	4d 85 c0             	test   %r8,%r8
  40632c:	0f 86 c6 00 00 00    	jbe    4063f8 <_ZSt10__fill_n_aIPlmlEN9__gnu_cxx11__enable_ifIXsr3std11__is_scalarIT1_EE7__valueET_E6__typeES4_T0_RKS3_+0xd8>
  406332:	49 83 f8 08          	cmp    $0x8,%r8
  406336:	0f 82 c3 00 00 00    	jb     4063ff <_ZSt10__fill_n_aIPlmlEN9__gnu_cxx11__enable_ifIXsr3std11__is_scalarIT1_EE7__valueET_E6__typeES4_T0_RKS3_+0xdf>
  40633c:	49 83 f8 0f          	cmp    $0xf,%r8
  406340:	0f 82 bd 00 00 00    	jb     406403 <_ZSt10__fill_n_aIPlmlEN9__gnu_cxx11__enable_ifIXsr3std11__is_scalarIT1_EE7__valueET_E6__typeES4_T0_RKS3_+0xe3>
  406346:	49 89 fa             	mov    %rdi,%r10
  406349:	49 83 e2 1f          	and    $0x1f,%r10
  40634d:	49 f7 c2 07 00 00 00 	test   $0x7,%r10
  406354:	74 12                	je     406368 <_ZSt10__fill_n_aIPlmlEN9__gnu_cxx11__enable_ifIXsr3std11__is_scalarIT1_EE7__valueET_E6__typeES4_T0_RKS3_+0x48>
  406356:	4c 89 c2             	mov    %r8,%rdx
  406359:	45 33 d2             	xor    %r10d,%r10d
  40635c:	48 83 e2 07          	and    $0x7,%rdx
  406360:	48 f7 da             	neg    %rdx
  406363:	49 03 d0             	add    %r8,%rdx
  406366:	eb 4d                	jmp    4063b5 <_ZSt10__fill_n_aIPlmlEN9__gnu_cxx11__enable_ifIXsr3std11__is_scalarIT1_EE7__valueET_E6__typeES4_T0_RKS3_+0x95>
  406368:	4d 85 d2             	test   %r10,%r10
  40636b:	74 3b                	je     4063a8 <_ZSt10__fill_n_aIPlmlEN9__gnu_cxx11__enable_ifIXsr3std11__is_scalarIT1_EE7__valueET_E6__typeES4_T0_RKS3_+0x88>
  40636d:	49 f7 da             	neg    %r10
  406370:	49 83 c2 20          	add    $0x20,%r10
  406374:	49 c1 ea 03          	shr    $0x3,%r10
  406378:	49 8d 52 08          	lea    0x8(%r10),%rdx
  40637c:	4c 3b c2             	cmp    %rdx,%r8
  40637f:	72 7e                	jb     4063ff <_ZSt10__fill_n_aIPlmlEN9__gnu_cxx11__enable_ifIXsr3std11__is_scalarIT1_EE7__valueET_E6__typeES4_T0_RKS3_+0xdf>
  406381:	4c 89 c2             	mov    %r8,%rdx
  406384:	45 33 c9             	xor    %r9d,%r9d
  406387:	49 2b d2             	sub    %r10,%rdx
  40638a:	48 83 e2 07          	and    $0x7,%rdx
  40638e:	48 f7 da             	neg    %rdx
  406391:	49 03 d0             	add    %r8,%rdx
  406394:	49 83 fa 01          	cmp    $0x1,%r10
  406398:	72 1b                	jb     4063b5 <_ZSt10__fill_n_aIPlmlEN9__gnu_cxx11__enable_ifIXsr3std11__is_scalarIT1_EE7__valueET_E6__typeES4_T0_RKS3_+0x95>
  40639a:	4a 89 34 cf          	mov    %rsi,(%rdi,%r9,8)
  40639e:	49 ff c1             	inc    %r9
  4063a1:	4d 3b ca             	cmp    %r10,%r9
  4063a4:	72 f4                	jb     40639a <_ZSt10__fill_n_aIPlmlEN9__gnu_cxx11__enable_ifIXsr3std11__is_scalarIT1_EE7__valueET_E6__typeES4_T0_RKS3_+0x7a>
  4063a6:	eb 0d                	jmp    4063b5 <_ZSt10__fill_n_aIPlmlEN9__gnu_cxx11__enable_ifIXsr3std11__is_scalarIT1_EE7__valueET_E6__typeES4_T0_RKS3_+0x95>
  4063a8:	4c 89 c2             	mov    %r8,%rdx
  4063ab:	48 83 e2 07          	and    $0x7,%rdx
  4063af:	48 f7 da             	neg    %rdx
  4063b2:	49 03 d0             	add    %r8,%rdx
  4063b5:	62 f2 fd 28 7c c6    	vpbroadcastq %rsi,%ymm0
  4063bb:	c4 a1 7e 7f 04 d7    	vmovdqu %ymm0,(%rdi,%r10,8)
  4063c1:	c4 a1 7e 7f 44 d7 20 	vmovdqu %ymm0,0x20(%rdi,%r10,8)
  4063c8:	49 83 c2 08          	add    $0x8,%r10
  4063cc:	4c 3b d2             	cmp    %rdx,%r10
  4063cf:	72 ea                	jb     4063bb <_ZSt10__fill_n_aIPlmlEN9__gnu_cxx11__enable_ifIXsr3std11__is_scalarIT1_EE7__valueET_E6__typeES4_T0_RKS3_+0x9b>
  4063d1:	48 8d 3c d7          	lea    (%rdi,%rdx,8),%rdi
  4063d5:	45 33 c9             	xor    %r9d,%r9d
  4063d8:	4c 8d 52 01          	lea    0x1(%rdx),%r10
  4063dc:	4d 3b d0             	cmp    %r8,%r10
  4063df:	77 17                	ja     4063f8 <_ZSt10__fill_n_aIPlmlEN9__gnu_cxx11__enable_ifIXsr3std11__is_scalarIT1_EE7__valueET_E6__typeES4_T0_RKS3_+0xd8>
  4063e1:	4c 2b c2             	sub    %rdx,%r8
  4063e4:	48 8d 04 d1          	lea    (%rcx,%rdx,8),%rax
  4063e8:	4a 89 34 c8          	mov    %rsi,(%rax,%r9,8)
  4063ec:	49 ff c1             	inc    %r9
  4063ef:	4d 3b c8             	cmp    %r8,%r9
  4063f2:	72 f4                	jb     4063e8 <_ZSt10__fill_n_aIPlmlEN9__gnu_cxx11__enable_ifIXsr3std11__is_scalarIT1_EE7__valueET_E6__typeES4_T0_RKS3_+0xc8>
  4063f4:	4a 8d 3c c8          	lea    (%rax,%r9,8),%rdi
  4063f8:	c5 f8 77             	vzeroupper 
  4063fb:	48 89 f8             	mov    %rdi,%rax
  4063fe:	c3                   	retq   
  4063ff:	33 d2                	xor    %edx,%edx
  406401:	eb d2                	jmp    4063d5 <_ZSt10__fill_n_aIPlmlEN9__gnu_cxx11__enable_ifIXsr3std11__is_scalarIT1_EE7__valueET_E6__typeES4_T0_RKS3_+0xb5>
  406403:	4c 89 c2             	mov    %r8,%rdx
  406406:	45 33 d2             	xor    %r10d,%r10d
  406409:	48 83 e2 f8          	and    $0xfffffffffffffff8,%rdx
  40640d:	eb a6                	jmp    4063b5 <_ZSt10__fill_n_aIPlmlEN9__gnu_cxx11__enable_ifIXsr3std11__is_scalarIT1_EE7__valueET_E6__typeES4_T0_RKS3_+0x95>
  40640f:	90                   	nop

0000000000406410 <_ZSt8__fill_aIPllEN9__gnu_cxx11__enable_ifIXsr3std11__is_scalarIT0_EE7__valueEvE6__typeET_S6_RKS3_>:
  406410:	48 8b 02             	mov    (%rdx),%rax
  406413:	48 3b fe             	cmp    %rsi,%rdi
  406416:	0f 84 be 00 00 00    	je     4064da <_ZSt8__fill_aIPllEN9__gnu_cxx11__enable_ifIXsr3std11__is_scalarIT0_EE7__valueEvE6__typeET_S6_RKS3_+0xca>
  40641c:	48 2b f7             	sub    %rdi,%rsi
  40641f:	48 83 c6 07          	add    $0x7,%rsi
  406423:	48 c1 ee 03          	shr    $0x3,%rsi
  406427:	48 83 fe 04          	cmp    $0x4,%rsi
  40642b:	0f 82 ad 00 00 00    	jb     4064de <_ZSt8__fill_aIPllEN9__gnu_cxx11__enable_ifIXsr3std11__is_scalarIT0_EE7__valueEvE6__typeET_S6_RKS3_+0xce>
  406431:	48 83 fe 1f          	cmp    $0x1f,%rsi
  406435:	0f 82 a8 00 00 00    	jb     4064e3 <_ZSt8__fill_aIPllEN9__gnu_cxx11__enable_ifIXsr3std11__is_scalarIT0_EE7__valueEvE6__typeET_S6_RKS3_+0xd3>
  40643b:	48 89 f9             	mov    %rdi,%rcx
  40643e:	48 83 e1 1f          	and    $0x1f,%rcx
  406442:	48 f7 c1 07 00 00 00 	test   $0x7,%rcx
  406449:	74 11                	je     40645c <_ZSt8__fill_aIPllEN9__gnu_cxx11__enable_ifIXsr3std11__is_scalarIT0_EE7__valueEvE6__typeET_S6_RKS3_+0x4c>
  40644b:	49 89 f0             	mov    %rsi,%r8
  40644e:	33 c9                	xor    %ecx,%ecx
  406450:	49 83 e0 03          	and    $0x3,%r8
  406454:	49 f7 d8             	neg    %r8
  406457:	4c 03 c6             	add    %rsi,%r8
  40645a:	eb 4c                	jmp    4064a8 <_ZSt8__fill_aIPllEN9__gnu_cxx11__enable_ifIXsr3std11__is_scalarIT0_EE7__valueEvE6__typeET_S6_RKS3_+0x98>
  40645c:	48 85 c9             	test   %rcx,%rcx
  40645f:	74 3a                	je     40649b <_ZSt8__fill_aIPllEN9__gnu_cxx11__enable_ifIXsr3std11__is_scalarIT0_EE7__valueEvE6__typeET_S6_RKS3_+0x8b>
  406461:	48 f7 d9             	neg    %rcx
  406464:	48 83 c1 20          	add    $0x20,%rcx
  406468:	48 c1 e9 03          	shr    $0x3,%rcx
  40646c:	48 8d 51 04          	lea    0x4(%rcx),%rdx
  406470:	48 3b f2             	cmp    %rdx,%rsi
  406473:	72 69                	jb     4064de <_ZSt8__fill_aIPllEN9__gnu_cxx11__enable_ifIXsr3std11__is_scalarIT0_EE7__valueEvE6__typeET_S6_RKS3_+0xce>
  406475:	49 89 f0             	mov    %rsi,%r8
  406478:	33 d2                	xor    %edx,%edx
  40647a:	4c 2b c1             	sub    %rcx,%r8
  40647d:	49 83 e0 03          	and    $0x3,%r8
  406481:	49 f7 d8             	neg    %r8
  406484:	4c 03 c6             	add    %rsi,%r8
  406487:	48 83 f9 01          	cmp    $0x1,%rcx
  40648b:	72 1b                	jb     4064a8 <_ZSt8__fill_aIPllEN9__gnu_cxx11__enable_ifIXsr3std11__is_scalarIT0_EE7__valueEvE6__typeET_S6_RKS3_+0x98>
  40648d:	48 89 04 d7          	mov    %rax,(%rdi,%rdx,8)
  406491:	48 ff c2             	inc    %rdx
  406494:	48 3b d1             	cmp    %rcx,%rdx
  406497:	72 f4                	jb     40648d <_ZSt8__fill_aIPllEN9__gnu_cxx11__enable_ifIXsr3std11__is_scalarIT0_EE7__valueEvE6__typeET_S6_RKS3_+0x7d>
  406499:	eb 0d                	jmp    4064a8 <_ZSt8__fill_aIPllEN9__gnu_cxx11__enable_ifIXsr3std11__is_scalarIT0_EE7__valueEvE6__typeET_S6_RKS3_+0x98>
  40649b:	49 89 f0             	mov    %rsi,%r8
  40649e:	49 83 e0 03          	and    $0x3,%r8
  4064a2:	49 f7 d8             	neg    %r8
  4064a5:	4c 03 c6             	add    %rsi,%r8
  4064a8:	62 f2 fd 28 7c c0    	vpbroadcastq %rax,%ymm0
  4064ae:	c5 fe 7f 04 cf       	vmovdqu %ymm0,(%rdi,%rcx,8)
  4064b3:	48 83 c1 04          	add    $0x4,%rcx
  4064b7:	49 3b c8             	cmp    %r8,%rcx
  4064ba:	72 f2                	jb     4064ae <_ZSt8__fill_aIPllEN9__gnu_cxx11__enable_ifIXsr3std11__is_scalarIT0_EE7__valueEvE6__typeET_S6_RKS3_+0x9e>
  4064bc:	33 c9                	xor    %ecx,%ecx
  4064be:	49 8d 50 01          	lea    0x1(%r8),%rdx
  4064c2:	48 3b d6             	cmp    %rsi,%rdx
  4064c5:	77 13                	ja     4064da <_ZSt8__fill_aIPllEN9__gnu_cxx11__enable_ifIXsr3std11__is_scalarIT0_EE7__valueEvE6__typeET_S6_RKS3_+0xca>
  4064c7:	49 2b f0             	sub    %r8,%rsi
  4064ca:	4a 8d 14 c7          	lea    (%rdi,%r8,8),%rdx
  4064ce:	48 89 04 ca          	mov    %rax,(%rdx,%rcx,8)
  4064d2:	48 ff c1             	inc    %rcx
  4064d5:	48 3b ce             	cmp    %rsi,%rcx
  4064d8:	72 f4                	jb     4064ce <_ZSt8__fill_aIPllEN9__gnu_cxx11__enable_ifIXsr3std11__is_scalarIT0_EE7__valueEvE6__typeET_S6_RKS3_+0xbe>
  4064da:	c5 f8 77             	vzeroupper 
  4064dd:	c3                   	retq   
  4064de:	45 33 c0             	xor    %r8d,%r8d
  4064e1:	eb d9                	jmp    4064bc <_ZSt8__fill_aIPllEN9__gnu_cxx11__enable_ifIXsr3std11__is_scalarIT0_EE7__valueEvE6__typeET_S6_RKS3_+0xac>
  4064e3:	49 89 f0             	mov    %rsi,%r8
  4064e6:	33 c9                	xor    %ecx,%ecx
  4064e8:	49 83 e0 fc          	and    $0xfffffffffffffffc,%r8
  4064ec:	eb ba                	jmp    4064a8 <_ZSt8__fill_aIPllEN9__gnu_cxx11__enable_ifIXsr3std11__is_scalarIT0_EE7__valueEvE6__typeET_S6_RKS3_+0x98>
  4064ee:	66 90                	xchg   %ax,%ax

00000000004064f0 <_ZNSt6vectorIlSaIlEE17_M_default_appendEm>:
  4064f0:	55                   	push   %rbp
  4064f1:	48 89 e5             	mov    %rsp,%rbp
  4064f4:	48 83 e4 c0          	and    $0xffffffffffffffc0,%rsp
  4064f8:	41 54                	push   %r12
  4064fa:	41 55                	push   %r13
  4064fc:	41 56                	push   %r14
  4064fe:	41 57                	push   %r15
  406500:	53                   	push   %rbx
  406501:	48 83 ec 18          	sub    $0x18,%rsp
  406505:	48 89 f3             	mov    %rsi,%rbx
  406508:	49 89 fc             	mov    %rdi,%r12
  40650b:	48 85 db             	test   %rbx,%rbx
  40650e:	0f 84 2b 01 00 00    	je     40663f <_ZNSt6vectorIlSaIlEE17_M_default_appendEm+0x14f>
  406514:	49 ba ff ff ff ff ff 	movabs $0x1fffffffffffffff,%r10
  40651b:	ff ff 1f 
  40651e:	49 8b 4c 24 08       	mov    0x8(%r12),%rcx
  406523:	49 89 cf             	mov    %rcx,%r15
  406526:	49 8b 04 24          	mov    (%r12),%rax
  40652a:	4c 2b f8             	sub    %rax,%r15
  40652d:	4d 8b 44 24 10       	mov    0x10(%r12),%r8
  406532:	4c 2b c1             	sub    %rcx,%r8
  406535:	49 c1 ff 03          	sar    $0x3,%r15
  406539:	49 c1 f8 03          	sar    $0x3,%r8
  40653d:	4d 3b fa             	cmp    %r10,%r15
  406540:	76 00                	jbe    406542 <_ZNSt6vectorIlSaIlEE17_M_default_appendEm+0x52>
  406542:	4d 89 d1             	mov    %r10,%r9
  406545:	4d 2b cf             	sub    %r15,%r9
  406548:	4d 3b c1             	cmp    %r9,%r8
  40654b:	77 f5                	ja     406542 <_ZNSt6vectorIlSaIlEE17_M_default_appendEm+0x52>
  40654d:	4c 3b c3             	cmp    %rbx,%r8
  406550:	0f 83 b7 00 00 00    	jae    40660d <_ZNSt6vectorIlSaIlEE17_M_default_appendEm+0x11d>
  406556:	4c 3b cb             	cmp    %rbx,%r9
  406559:	0f 82 73 01 00 00    	jb     4066d2 <_ZNSt6vectorIlSaIlEE17_M_default_appendEm+0x1e2>
  40655f:	49 3b df             	cmp    %r15,%rbx
  406562:	4d 89 fd             	mov    %r15,%r13
  406565:	4c 0f 47 eb          	cmova  %rbx,%r13
  406569:	4d 03 ef             	add    %r15,%r13
  40656c:	4d 3b ef             	cmp    %r15,%r13
  40656f:	72 05                	jb     406576 <_ZNSt6vectorIlSaIlEE17_M_default_appendEm+0x86>
  406571:	4d 3b ea             	cmp    %r10,%r13
  406574:	76 03                	jbe    406579 <_ZNSt6vectorIlSaIlEE17_M_default_appendEm+0x89>
  406576:	4d 89 d5             	mov    %r10,%r13
  406579:	4d 85 ed             	test   %r13,%r13
  40657c:	0f 85 29 01 00 00    	jne    4066ab <_ZNSt6vectorIlSaIlEE17_M_default_appendEm+0x1bb>
  406582:	45 33 f6             	xor    %r14d,%r14d
  406585:	45 33 ed             	xor    %r13d,%r13d
  406588:	4b 8d 3c fe          	lea    (%r14,%r15,8),%rdi
  40658c:	48 85 db             	test   %rbx,%rbx
  40658f:	76 2c                	jbe    4065bd <_ZNSt6vectorIlSaIlEE17_M_default_appendEm+0xcd>
  406591:	48 83 fb 0c          	cmp    $0xc,%rbx
  406595:	0f 86 b9 00 00 00    	jbe    406654 <_ZNSt6vectorIlSaIlEE17_M_default_appendEm+0x164>
  40659b:	48 c1 e3 03          	shl    $0x3,%rbx
  40659f:	33 f6                	xor    %esi,%esi
  4065a1:	48 89 da             	mov    %rbx,%rdx
  4065a4:	48 89 04 24          	mov    %rax,(%rsp)
  4065a8:	48 89 4c 24 08       	mov    %rcx,0x8(%rsp)
  4065ad:	e8 1e 04 00 00       	callq  4069d0 <_intel_fast_memset>
  4065b2:	48 8b 4c 24 08       	mov    0x8(%rsp),%rcx
  4065b7:	48 8b 04 24          	mov    (%rsp),%rax
  4065bb:	eb 04                	jmp    4065c1 <_ZNSt6vectorIlSaIlEE17_M_default_appendEm+0xd1>
  4065bd:	48 c1 e3 03          	shl    $0x3,%rbx
  4065c1:	48 2b c8             	sub    %rax,%rcx
  4065c4:	48 c1 f9 03          	sar    $0x3,%rcx
  4065c8:	74 19                	je     4065e3 <_ZNSt6vectorIlSaIlEE17_M_default_appendEm+0xf3>
  4065ca:	48 c1 e1 03          	shl    $0x3,%rcx
  4065ce:	4c 89 f7             	mov    %r14,%rdi
  4065d1:	48 89 c6             	mov    %rax,%rsi
  4065d4:	48 89 ca             	mov    %rcx,%rdx
  4065d7:	c5 f8 77             	vzeroupper 
  4065da:	e8 31 03 00 00       	callq  406910 <_intel_fast_memmove>
  4065df:	49 8b 04 24          	mov    (%r12),%rax
  4065e3:	48 85 c0             	test   %rax,%rax
  4065e6:	74 0b                	je     4065f3 <_ZNSt6vectorIlSaIlEE17_M_default_appendEm+0x103>
  4065e8:	48 89 c7             	mov    %rax,%rdi
  4065eb:	c5 f8 77             	vzeroupper 
  4065ee:	e8 3d cc ff ff       	callq  403230 <_ZdlPv@plt>
  4065f3:	4d 89 34 24          	mov    %r14,(%r12)
  4065f7:	4a 8d 04 fb          	lea    (%rbx,%r15,8),%rax
  4065fb:	49 03 c6             	add    %r14,%rax
  4065fe:	4d 03 f5             	add    %r13,%r14
  406601:	49 89 44 24 08       	mov    %rax,0x8(%r12)
  406606:	4d 89 74 24 10       	mov    %r14,0x10(%r12)
  40660b:	eb 32                	jmp    40663f <_ZNSt6vectorIlSaIlEE17_M_default_appendEm+0x14f>
  40660d:	48 85 db             	test   %rbx,%rbx
  406610:	76 28                	jbe    40663a <_ZNSt6vectorIlSaIlEE17_M_default_appendEm+0x14a>
  406612:	48 83 fb 0c          	cmp    $0xc,%rbx
  406616:	0f 86 c0 00 00 00    	jbe    4066dc <_ZNSt6vectorIlSaIlEE17_M_default_appendEm+0x1ec>
  40661c:	48 c1 e3 03          	shl    $0x3,%rbx
  406620:	48 89 cf             	mov    %rcx,%rdi
  406623:	33 f6                	xor    %esi,%esi
  406625:	48 89 da             	mov    %rbx,%rdx
  406628:	48 89 4c 24 08       	mov    %rcx,0x8(%rsp)
  40662d:	e8 9e 03 00 00       	callq  4069d0 <_intel_fast_memset>
  406632:	48 8b 4c 24 08       	mov    0x8(%rsp),%rcx
  406637:	48 03 cb             	add    %rbx,%rcx
  40663a:	49 89 4c 24 08       	mov    %rcx,0x8(%r12)
  40663f:	c5 f8 77             	vzeroupper 
  406642:	48 83 c4 18          	add    $0x18,%rsp
  406646:	5b                   	pop    %rbx
  406647:	41 5f                	pop    %r15
  406649:	41 5e                	pop    %r14
  40664b:	41 5d                	pop    %r13
  40664d:	41 5c                	pop    %r12
  40664f:	48 89 ec             	mov    %rbp,%rsp
  406652:	5d                   	pop    %rbp
  406653:	c3                   	retq   
  406654:	48 83 fb 04          	cmp    $0x4,%rbx
  406658:	72 4c                	jb     4066a6 <_ZNSt6vectorIlSaIlEE17_M_default_appendEm+0x1b6>
  40665a:	49 89 d8             	mov    %rbx,%r8
  40665d:	45 33 c9             	xor    %r9d,%r9d
  406660:	c5 fd ef c0          	vpxor  %ymm0,%ymm0,%ymm0
  406664:	49 83 e0 fc          	and    $0xfffffffffffffffc,%r8
  406668:	c4 a1 7e 7f 04 cf    	vmovdqu %ymm0,(%rdi,%r9,8)
  40666e:	49 83 c1 04          	add    $0x4,%r9
  406672:	4d 3b c8             	cmp    %r8,%r9
  406675:	72 f1                	jb     406668 <_ZNSt6vectorIlSaIlEE17_M_default_appendEm+0x178>
  406677:	45 33 d2             	xor    %r10d,%r10d
  40667a:	4d 8d 48 01          	lea    0x1(%r8),%r9
  40667e:	4c 3b cb             	cmp    %rbx,%r9
  406681:	0f 87 36 ff ff ff    	ja     4065bd <_ZNSt6vectorIlSaIlEE17_M_default_appendEm+0xcd>
  406687:	4e 8d 0c c7          	lea    (%rdi,%r8,8),%r9
  40668b:	49 f7 d8             	neg    %r8
  40668e:	4c 03 c3             	add    %rbx,%r8
  406691:	4b c7 04 d1 00 00 00 	movq   $0x0,(%r9,%r10,8)
  406698:	00 
  406699:	49 ff c2             	inc    %r10
  40669c:	4d 3b d0             	cmp    %r8,%r10
  40669f:	72 f0                	jb     406691 <_ZNSt6vectorIlSaIlEE17_M_default_appendEm+0x1a1>
  4066a1:	e9 17 ff ff ff       	jmpq   4065bd <_ZNSt6vectorIlSaIlEE17_M_default_appendEm+0xcd>
  4066a6:	45 33 c0             	xor    %r8d,%r8d
  4066a9:	eb cc                	jmp    406677 <_ZNSt6vectorIlSaIlEE17_M_default_appendEm+0x187>
  4066ab:	4d 3b ea             	cmp    %r10,%r13
  4066ae:	77 1d                	ja     4066cd <_ZNSt6vectorIlSaIlEE17_M_default_appendEm+0x1dd>
  4066b0:	49 c1 e5 03          	shl    $0x3,%r13
  4066b4:	4c 89 ef             	mov    %r13,%rdi
  4066b7:	e8 94 cb ff ff       	callq  403250 <_Znwm@plt>
  4066bc:	49 89 c6             	mov    %rax,%r14
  4066bf:	49 8b 4c 24 08       	mov    0x8(%r12),%rcx
  4066c4:	49 8b 04 24          	mov    (%r12),%rax
  4066c8:	e9 bb fe ff ff       	jmpq   406588 <_ZNSt6vectorIlSaIlEE17_M_default_appendEm+0x98>
  4066cd:	e8 ee c9 ff ff       	callq  4030c0 <_ZSt17__throw_bad_allocv@plt>
  4066d2:	bf fc 12 42 00       	mov    $0x4212fc,%edi
  4066d7:	e8 64 ca ff ff       	callq  403140 <_ZSt20__throw_length_errorPKc@plt>
  4066dc:	48 83 fb 04          	cmp    $0x4,%rbx
  4066e0:	72 4a                	jb     40672c <_ZNSt6vectorIlSaIlEE17_M_default_appendEm+0x23c>
  4066e2:	48 89 de             	mov    %rbx,%rsi
  4066e5:	33 c0                	xor    %eax,%eax
  4066e7:	c5 fd ef c0          	vpxor  %ymm0,%ymm0,%ymm0
  4066eb:	48 83 e6 fc          	and    $0xfffffffffffffffc,%rsi
  4066ef:	c5 fe 7f 04 c1       	vmovdqu %ymm0,(%rcx,%rax,8)
  4066f4:	48 83 c0 04          	add    $0x4,%rax
  4066f8:	48 3b c6             	cmp    %rsi,%rax
  4066fb:	72 f2                	jb     4066ef <_ZNSt6vectorIlSaIlEE17_M_default_appendEm+0x1ff>
  4066fd:	45 33 c0             	xor    %r8d,%r8d
  406700:	48 8d 46 01          	lea    0x1(%rsi),%rax
  406704:	48 3b c3             	cmp    %rbx,%rax
  406707:	77 1a                	ja     406723 <_ZNSt6vectorIlSaIlEE17_M_default_appendEm+0x233>
  406709:	48 8d 04 f1          	lea    (%rcx,%rsi,8),%rax
  40670d:	48 f7 de             	neg    %rsi
  406710:	48 03 f3             	add    %rbx,%rsi
  406713:	4a c7 04 c0 00 00 00 	movq   $0x0,(%rax,%r8,8)
  40671a:	00 
  40671b:	49 ff c0             	inc    %r8
  40671e:	4c 3b c6             	cmp    %rsi,%r8
  406721:	72 f0                	jb     406713 <_ZNSt6vectorIlSaIlEE17_M_default_appendEm+0x223>
  406723:	48 c1 e3 03          	shl    $0x3,%rbx
  406727:	e9 0b ff ff ff       	jmpq   406637 <_ZNSt6vectorIlSaIlEE17_M_default_appendEm+0x147>
  40672c:	33 f6                	xor    %esi,%esi
  40672e:	eb cd                	jmp    4066fd <_ZNSt6vectorIlSaIlEE17_M_default_appendEm+0x20d>

0000000000406730 <_intel_fast_memcmp>:
  406730:	f3 0f 1e fa          	endbr64 
  406734:	49 89 f0             	mov    %rsi,%r8
  406737:	48 85 d2             	test   %rdx,%rdx
  40673a:	74 44                	je     406780 <_intel_fast_memcmp+0x50>
  40673c:	49 3b f8             	cmp    %r8,%rdi
  40673f:	74 3f                	je     406780 <_intel_fast_memcmp+0x50>
  406741:	48 89 d1             	mov    %rdx,%rcx
  406744:	33 c0                	xor    %eax,%eax
  406746:	48 c1 e9 03          	shr    $0x3,%rcx
  40674a:	74 12                	je     40675e <_intel_fast_memcmp+0x2e>
  40674c:	48 8b 34 c7          	mov    (%rdi,%rax,8),%rsi
  406750:	49 3b 34 c0          	cmp    (%r8,%rax,8),%rsi
  406754:	75 2d                	jne    406783 <_intel_fast_memcmp+0x53>
  406756:	48 ff c0             	inc    %rax
  406759:	48 3b c1             	cmp    %rcx,%rax
  40675c:	72 ee                	jb     40674c <_intel_fast_memcmp+0x1c>
  40675e:	33 c0                	xor    %eax,%eax
  406760:	48 8d 34 cf          	lea    (%rdi,%rcx,8),%rsi
  406764:	49 8d 0c c8          	lea    (%r8,%rcx,8),%rcx
  406768:	48 83 e2 07          	and    $0x7,%rdx
  40676c:	74 12                	je     406780 <_intel_fast_memcmp+0x50>
  40676e:	0f b6 3c 30          	movzbl (%rax,%rsi,1),%edi
  406772:	40 3a 3c 08          	cmp    (%rax,%rcx,1),%dil
  406776:	75 2a                	jne    4067a2 <_intel_fast_memcmp+0x72>
  406778:	48 ff c0             	inc    %rax
  40677b:	48 3b c2             	cmp    %rdx,%rax
  40677e:	72 ee                	jb     40676e <_intel_fast_memcmp+0x3e>
  406780:	33 c0                	xor    %eax,%eax
  406782:	c3                   	retq   
  406783:	48 8b 14 c7          	mov    (%rdi,%rax,8),%rdx
  406787:	be ff ff ff ff       	mov    $0xffffffff,%esi
  40678c:	49 8b 0c c0          	mov    (%r8,%rax,8),%rcx
  406790:	b8 01 00 00 00       	mov    $0x1,%eax
  406795:	48 0f ca             	bswap  %rdx
  406798:	48 0f c9             	bswap  %rcx
  40679b:	48 3b d1             	cmp    %rcx,%rdx
  40679e:	0f 42 c6             	cmovb  %esi,%eax
  4067a1:	c3                   	retq   
  4067a2:	ba 01 00 00 00       	mov    $0x1,%edx
  4067a7:	b8 ff ff ff ff       	mov    $0xffffffff,%eax
  4067ac:	0f 47 c2             	cmova  %edx,%eax
  4067af:	c3                   	retq   

00000000004067b0 <_intel_fast_memcpy.A>:
  4067b0:	f3 0f 1e fa          	endbr64 
  4067b4:	e9 37 ca ff ff       	jmpq   4031f0 <memcpy@plt>
  4067b9:	0f 1f 80 00 00 00 00 	nopl   0x0(%rax)

00000000004067c0 <_intel_fast_memcpy.J>:
  4067c0:	f3 0f 1e fa          	endbr64 
  4067c4:	e9 57 a5 00 00       	jmpq   410d20 <__intel_memcpy>
  4067c9:	0f 1f 80 00 00 00 00 	nopl   0x0(%rax)

00000000004067d0 <_intel_fast_memcpy.M>:
  4067d0:	f3 0f 1e fa          	endbr64 
  4067d4:	e9 d7 ce 00 00       	jmpq   4136b0 <__intel_ssse3_memcpy>
  4067d9:	0f 1f 80 00 00 00 00 	nopl   0x0(%rax)

00000000004067e0 <_intel_fast_memcpy.P>:
  4067e0:	f3 0f 1e fa          	endbr64 
  4067e4:	e9 97 f8 00 00       	jmpq   416080 <__intel_ssse3_rep_memcpy>
  4067e9:	0f 1f 80 00 00 00 00 	nopl   0x0(%rax)

00000000004067f0 <_intel_fast_memcpy.V>:
  4067f0:	f3 0f 1e fa          	endbr64 
  4067f4:	e9 87 45 00 00       	jmpq   40ad80 <__intel_avx_rep_memcpy>
  4067f9:	0f 1f 80 00 00 00 00 	nopl   0x0(%rax)

0000000000406800 <_intel_fast_memcpy.Z>:
  406800:	f3 0f 1e fa          	endbr64 
  406804:	e9 f7 10 00 00       	jmpq   407900 <__intel_mic_avx512f_memcpy>
  406809:	0f 1f 80 00 00 00 00 	nopl   0x0(%rax)

0000000000406810 <_intel_fast_memcpy.a>:
  406810:	f3 0f 1e fa          	endbr64 
  406814:	e9 67 45 00 00       	jmpq   40ad80 <__intel_avx_rep_memcpy>
  406819:	0f 1f 80 00 00 00 00 	nopl   0x0(%rax)

0000000000406820 <_intel_fast_memcpy>:
  406820:	f3 0f 1e fa          	endbr64 
  406824:	56                   	push   %rsi
  406825:	49 b8 ff 97 9d 18 07 	movabs $0x7189d97ff,%r8
  40682c:	00 00 00 
  40682f:	48 8d 0d ea 1c 02 00 	lea    0x21cea(%rip),%rcx        # 428520 <__intel_cpu_feature_indicator>
  406836:	48 8b 01             	mov    (%rcx),%rax
  406839:	49 23 c0             	and    %r8,%rax
  40683c:	49 3b c0             	cmp    %r8,%rax
  40683f:	75 09                	jne    40684a <_intel_fast_memcpy+0x2a>
  406841:	48 83 c4 08          	add    $0x8,%rsp
  406845:	e9 b6 ff ff ff       	jmpq   406800 <_intel_fast_memcpy.Z>
  40684a:	44 8b 09             	mov    (%rcx),%r9d
  40684d:	44 89 c8             	mov    %r9d,%eax
  406850:	25 ff 97 9d 00       	and    $0x9d97ff,%eax
  406855:	3d ff 97 9d 00       	cmp    $0x9d97ff,%eax
  40685a:	75 09                	jne    406865 <_intel_fast_memcpy+0x45>
  40685c:	48 83 c4 08          	add    $0x8,%rsp
  406860:	e9 8b ff ff ff       	jmpq   4067f0 <_intel_fast_memcpy.V>
  406865:	44 89 c8             	mov    %r9d,%eax
  406868:	25 ff 17 00 00       	and    $0x17ff,%eax
  40686d:	3d ff 17 00 00       	cmp    $0x17ff,%eax
  406872:	75 09                	jne    40687d <_intel_fast_memcpy+0x5d>
  406874:	48 83 c4 08          	add    $0x8,%rsp
  406878:	e9 63 ff ff ff       	jmpq   4067e0 <_intel_fast_memcpy.P>
  40687d:	41 81 e1 ff 01 00 00 	and    $0x1ff,%r9d
  406884:	41 81 f9 ff 01 00 00 	cmp    $0x1ff,%r9d
  40688b:	75 09                	jne    406896 <_intel_fast_memcpy+0x76>
  40688d:	48 83 c4 08          	add    $0x8,%rsp
  406891:	e9 3a ff ff ff       	jmpq   4067d0 <_intel_fast_memcpy.M>
  406896:	44 8a 09             	mov    (%rcx),%r9b
  406899:	44 88 c8             	mov    %r9b,%al
  40689c:	24 7f                	and    $0x7f,%al
  40689e:	3c 7f                	cmp    $0x7f,%al
  4068a0:	75 09                	jne    4068ab <_intel_fast_memcpy+0x8b>
  4068a2:	48 83 c4 08          	add    $0x8,%rsp
  4068a6:	e9 15 ff ff ff       	jmpq   4067c0 <_intel_fast_memcpy.J>
  4068ab:	41 80 e1 7f          	and    $0x7f,%r9b
  4068af:	41 80 f9 7f          	cmp    $0x7f,%r9b
  4068b3:	74 ed                	je     4068a2 <_intel_fast_memcpy+0x82>
  4068b5:	f6 01 01             	testb  $0x1,(%rcx)
  4068b8:	74 09                	je     4068c3 <_intel_fast_memcpy+0xa3>
  4068ba:	48 83 c4 08          	add    $0x8,%rsp
  4068be:	e9 ed fe ff ff       	jmpq   4067b0 <_intel_fast_memcpy.A>
  4068c3:	ff 15 d7 06 02 00    	callq  *0x206d7(%rip)        # 426fa0 <.got>
  4068c9:	e9 68 ff ff ff       	jmpq   406836 <_intel_fast_memcpy+0x16>
  4068ce:	66 90                	xchg   %ax,%ax

00000000004068d0 <_intel_fast_memmove.A>:
  4068d0:	f3 0f 1e fa          	endbr64 
  4068d4:	e9 37 cb ff ff       	jmpq   403410 <memmove@plt>
  4068d9:	0f 1f 80 00 00 00 00 	nopl   0x0(%rax)

00000000004068e0 <_intel_fast_memmove.M>:
  4068e0:	f3 0f 1e fa          	endbr64 
  4068e4:	e9 77 22 01 00       	jmpq   418b60 <__intel_ssse3_memmove>
  4068e9:	0f 1f 80 00 00 00 00 	nopl   0x0(%rax)

00000000004068f0 <_intel_fast_memmove.P>:
  4068f0:	f3 0f 1e fa          	endbr64 
  4068f4:	e9 e7 4d 01 00       	jmpq   41b6e0 <__intel_ssse3_rep_memmove>
  4068f9:	0f 1f 80 00 00 00 00 	nopl   0x0(%rax)

0000000000406900 <_intel_fast_memmove.V>:
  406900:	f3 0f 1e fa          	endbr64 
  406904:	e9 47 5c 00 00       	jmpq   40c550 <__intel_avx_memmove>
  406909:	0f 1f 80 00 00 00 00 	nopl   0x0(%rax)

0000000000406910 <_intel_fast_memmove>:
  406910:	f3 0f 1e fa          	endbr64 
  406914:	56                   	push   %rsi
  406915:	48 8d 0d 04 1c 02 00 	lea    0x21c04(%rip),%rcx        # 428520 <__intel_cpu_feature_indicator>
  40691c:	44 8b 01             	mov    (%rcx),%r8d
  40691f:	44 89 c0             	mov    %r8d,%eax
  406922:	25 ff 97 9d 00       	and    $0x9d97ff,%eax
  406927:	3d ff 97 9d 00       	cmp    $0x9d97ff,%eax
  40692c:	75 09                	jne    406937 <_intel_fast_memmove+0x27>
  40692e:	48 83 c4 08          	add    $0x8,%rsp
  406932:	e9 c9 ff ff ff       	jmpq   406900 <_intel_fast_memmove.V>
  406937:	44 89 c0             	mov    %r8d,%eax
  40693a:	25 ff 17 00 00       	and    $0x17ff,%eax
  40693f:	3d ff 17 00 00       	cmp    $0x17ff,%eax
  406944:	75 09                	jne    40694f <_intel_fast_memmove+0x3f>
  406946:	48 83 c4 08          	add    $0x8,%rsp
  40694a:	e9 a1 ff ff ff       	jmpq   4068f0 <_intel_fast_memmove.P>
  40694f:	41 81 e0 ff 01 00 00 	and    $0x1ff,%r8d
  406956:	41 81 f8 ff 01 00 00 	cmp    $0x1ff,%r8d
  40695d:	75 09                	jne    406968 <_intel_fast_memmove+0x58>
  40695f:	48 83 c4 08          	add    $0x8,%rsp
  406963:	e9 78 ff ff ff       	jmpq   4068e0 <_intel_fast_memmove.M>
  406968:	f6 01 01             	testb  $0x1,(%rcx)
  40696b:	74 09                	je     406976 <_intel_fast_memmove+0x66>
  40696d:	48 83 c4 08          	add    $0x8,%rsp
  406971:	e9 5a ff ff ff       	jmpq   4068d0 <_intel_fast_memmove.A>
  406976:	ff 15 24 06 02 00    	callq  *0x20624(%rip)        # 426fa0 <.got>
  40697c:	eb 9e                	jmp    40691c <_intel_fast_memmove+0xc>
  40697e:	66 90                	xchg   %ax,%ax

0000000000406980 <_intel_fast_memset.A>:
  406980:	f3 0f 1e fa          	endbr64 
  406984:	e9 d7 c7 ff ff       	jmpq   403160 <memset@plt>
  406989:	0f 1f 80 00 00 00 00 	nopl   0x0(%rax)

0000000000406990 <_intel_fast_memset.J>:
  406990:	f3 0f 1e fa          	endbr64 
  406994:	e9 37 bb 00 00       	jmpq   4124d0 <__intel_memset>
  406999:	0f 1f 80 00 00 00 00 	nopl   0x0(%rax)

00000000004069a0 <_intel_fast_memset.V>:
  4069a0:	f3 0f 1e fa          	endbr64 
  4069a4:	e9 a7 92 00 00       	jmpq   40fc50 <__intel_avx_rep_memset>
  4069a9:	0f 1f 80 00 00 00 00 	nopl   0x0(%rax)

00000000004069b0 <_intel_fast_memset.Z>:
  4069b0:	f3 0f 1e fa          	endbr64 
  4069b4:	e9 c7 2a 00 00       	jmpq   409480 <__intel_mic_avx512f_memset>
  4069b9:	0f 1f 80 00 00 00 00 	nopl   0x0(%rax)

00000000004069c0 <_intel_fast_memset.a>:
  4069c0:	f3 0f 1e fa          	endbr64 
  4069c4:	e9 87 92 00 00       	jmpq   40fc50 <__intel_avx_rep_memset>
  4069c9:	0f 1f 80 00 00 00 00 	nopl   0x0(%rax)

00000000004069d0 <_intel_fast_memset>:
  4069d0:	f3 0f 1e fa          	endbr64 
  4069d4:	56                   	push   %rsi
  4069d5:	49 b8 ff 97 9d 18 07 	movabs $0x7189d97ff,%r8
  4069dc:	00 00 00 
  4069df:	48 8d 0d 3a 1b 02 00 	lea    0x21b3a(%rip),%rcx        # 428520 <__intel_cpu_feature_indicator>
  4069e6:	48 8b 01             	mov    (%rcx),%rax
  4069e9:	49 23 c0             	and    %r8,%rax
  4069ec:	49 3b c0             	cmp    %r8,%rax
  4069ef:	75 09                	jne    4069fa <_intel_fast_memset+0x2a>
  4069f1:	48 83 c4 08          	add    $0x8,%rsp
  4069f5:	e9 b6 ff ff ff       	jmpq   4069b0 <_intel_fast_memset.Z>
  4069fa:	8b 01                	mov    (%rcx),%eax
  4069fc:	25 ff 97 9d 00       	and    $0x9d97ff,%eax
  406a01:	3d ff 97 9d 00       	cmp    $0x9d97ff,%eax
  406a06:	75 09                	jne    406a11 <_intel_fast_memset+0x41>
  406a08:	48 83 c4 08          	add    $0x8,%rsp
  406a0c:	e9 8f ff ff ff       	jmpq   4069a0 <_intel_fast_memset.V>
  406a11:	44 8a 09             	mov    (%rcx),%r9b
  406a14:	44 88 c8             	mov    %r9b,%al
  406a17:	24 7f                	and    $0x7f,%al
  406a19:	3c 7f                	cmp    $0x7f,%al
  406a1b:	75 09                	jne    406a26 <_intel_fast_memset+0x56>
  406a1d:	48 83 c4 08          	add    $0x8,%rsp
  406a21:	e9 6a ff ff ff       	jmpq   406990 <_intel_fast_memset.J>
  406a26:	41 80 e1 7f          	and    $0x7f,%r9b
  406a2a:	41 80 f9 7f          	cmp    $0x7f,%r9b
  406a2e:	74 ed                	je     406a1d <_intel_fast_memset+0x4d>
  406a30:	f6 01 01             	testb  $0x1,(%rcx)
  406a33:	74 09                	je     406a3e <_intel_fast_memset+0x6e>
  406a35:	48 83 c4 08          	add    $0x8,%rsp
  406a39:	e9 42 ff ff ff       	jmpq   406980 <_intel_fast_memset.A>
  406a3e:	ff 15 5c 05 02 00    	callq  *0x2055c(%rip)        # 426fa0 <.got>
  406a44:	eb a0                	jmp    4069e6 <_intel_fast_memset+0x16>
  406a46:	0f 1f 00             	nopl   (%rax)
  406a49:	0f 1f 80 00 00 00 00 	nopl   0x0(%rax)

0000000000406a50 <__intel_new_feature_proc_init>:
  406a50:	f3 0f 1e fa          	endbr64 
  406a54:	41 56                	push   %r14
  406a56:	41 89 fe             	mov    %edi,%r14d
  406a59:	33 ff                	xor    %edi,%edi
  406a5b:	e8 70 00 00 00       	callq  406ad0 <__intel_new_feature_proc_init_n>
  406a60:	be 06 00 00 00       	mov    $0x6,%esi
  406a65:	48 8d 3d b4 1a 02 00 	lea    0x21ab4(%rip),%rdi        # 428520 <__intel_cpu_feature_indicator>
  406a6c:	e8 3f 7f 01 00       	callq  41e9b0 <__libirc_get_cpu_feature>
  406a71:	83 f8 01             	cmp    $0x1,%eax
  406a74:	74 44                	je     406aba <__intel_new_feature_proc_init+0x6a>
  406a76:	85 c0                	test   %eax,%eax
  406a78:	7c 03                	jl     406a7d <__intel_new_feature_proc_init+0x2d>
  406a7a:	41 5e                	pop    %r14
  406a7c:	c3                   	retq   
  406a7d:	33 f6                	xor    %esi,%esi
  406a7f:	bf 01 00 00 00       	mov    $0x1,%edi
  406a84:	33 d2                	xor    %edx,%edx
  406a86:	33 c0                	xor    %eax,%eax
  406a88:	e8 f3 79 01 00       	callq  41e480 <__libirc_print>
  406a8d:	bf 01 00 00 00       	mov    $0x1,%edi
  406a92:	be 3a 00 00 00       	mov    $0x3a,%esi
  406a97:	33 d2                	xor    %edx,%edx
  406a99:	33 c0                	xor    %eax,%eax
  406a9b:	e8 e0 79 01 00       	callq  41e480 <__libirc_print>
  406aa0:	33 f6                	xor    %esi,%esi
  406aa2:	bf 01 00 00 00       	mov    $0x1,%edi
  406aa7:	33 d2                	xor    %edx,%edx
  406aa9:	33 c0                	xor    %eax,%eax
  406aab:	e8 d0 79 01 00       	callq  41e480 <__libirc_print>
  406ab0:	bf 01 00 00 00       	mov    $0x1,%edi
  406ab5:	e8 f6 c7 ff ff       	callq  4032b0 <exit@plt>
  406aba:	33 ff                	xor    %edi,%edi
  406abc:	44 89 f6             	mov    %r14d,%esi
  406abf:	41 5e                	pop    %r14
  406ac1:	e9 3a a1 01 00       	jmpq   420c00 <__intel_proc_init_ftzdazule>
  406ac6:	0f 1f 00             	nopl   (%rax)
  406ac9:	0f 1f 80 00 00 00 00 	nopl   0x0(%rax)

0000000000406ad0 <__intel_new_feature_proc_init_n>:
  406ad0:	f3 0f 1e fa          	endbr64 
  406ad4:	41 54                	push   %r12
  406ad6:	41 55                	push   %r13
  406ad8:	41 56                	push   %r14
  406ada:	48 81 ec 40 04 00 00 	sub    $0x440,%rsp
  406ae1:	49 89 f6             	mov    %rsi,%r14
  406ae4:	64 48 8b 04 25 28 00 	mov    %fs:0x28,%rax
  406aeb:	00 00 
  406aed:	66 0f ef c0          	pxor   %xmm0,%xmm0
  406af1:	48 33 c4             	xor    %rsp,%rax
  406af4:	48 89 84 24 30 04 00 	mov    %rax,0x430(%rsp)
  406afb:	00 
  406afc:	4c 63 ef             	movslq %edi,%r13
  406aff:	f3 0f 7f 44 24 20    	movdqu %xmm0,0x20(%rsp)
  406b05:	4c 8d 25 14 1a 02 00 	lea    0x21a14(%rip),%r12        # 428520 <__intel_cpu_feature_indicator>
  406b0c:	49 83 3c 24 00       	cmpq   $0x0,(%r12)
  406b11:	0f 84 19 03 00 00    	je     406e30 <__intel_new_feature_proc_init_n+0x360>
  406b17:	49 83 fd 02          	cmp    $0x2,%r13
  406b1b:	0f 8d 7c 02 00 00    	jge    406d9d <__intel_new_feature_proc_init_n+0x2cd>
  406b21:	4c 89 f0             	mov    %r14,%rax
  406b24:	4b 8b 14 ec          	mov    (%r12,%r13,8),%rdx
  406b28:	48 23 c2             	and    %rdx,%rax
  406b2b:	49 3b c6             	cmp    %r14,%rax
  406b2e:	75 28                	jne    406b58 <__intel_new_feature_proc_init_n+0x88>
  406b30:	48 8b 84 24 30 04 00 	mov    0x430(%rsp),%rax
  406b37:	00 
  406b38:	48 33 c4             	xor    %rsp,%rax
  406b3b:	64 48 3b 04 25 28 00 	cmp    %fs:0x28,%rax
  406b42:	00 00 
  406b44:	0f 85 65 02 00 00    	jne    406daf <__intel_new_feature_proc_init_n+0x2df>
  406b4a:	48 81 c4 40 04 00 00 	add    $0x440,%rsp
  406b51:	41 5e                	pop    %r14
  406b53:	41 5d                	pop    %r13
  406b55:	41 5c                	pop    %r12
  406b57:	c3                   	retq   
  406b58:	48 f7 d2             	not    %rdx
  406b5b:	bf 39 00 00 00       	mov    $0x39,%edi
  406b60:	49 23 d6             	and    %r14,%rdx
  406b63:	45 33 f6             	xor    %r14d,%r14d
  406b66:	33 f6                	xor    %esi,%esi
  406b68:	33 c0                	xor    %eax,%eax
  406b6a:	4a 89 54 ec 20       	mov    %rdx,0x20(%rsp,%r13,8)
  406b6f:	e8 7c 76 01 00       	callq  41e1f0 <__libirc_get_msg>
  406b74:	c6 44 24 30 00       	movb   $0x0,0x30(%rsp)
  406b79:	45 33 ed             	xor    %r13d,%r13d
  406b7c:	48 89 44 24 18       	mov    %rax,0x18(%rsp)
  406b81:	41 bc 01 00 00 00    	mov    $0x1,%r12d
  406b87:	4c 89 7c 24 10       	mov    %r15,0x10(%rsp)
  406b8c:	48 89 5c 24 08       	mov    %rbx,0x8(%rsp)
  406b91:	48 89 2c 24          	mov    %rbp,(%rsp)
  406b95:	44 89 e0             	mov    %r12d,%eax
  406b98:	e8 23 7c 01 00       	callq  41e7c0 <__libirc_get_feature_bitpos>
  406b9d:	85 c0                	test   %eax,%eax
  406b9f:	0f 8c 1d 01 00 00    	jl     406cc2 <__intel_new_feature_proc_init_n+0x1f2>
  406ba5:	44 89 e6             	mov    %r12d,%esi
  406ba8:	48 8d 7c 24 20       	lea    0x20(%rsp),%rdi
  406bad:	e8 fe 7d 01 00       	callq  41e9b0 <__libirc_get_cpu_feature>
  406bb2:	85 c0                	test   %eax,%eax
  406bb4:	0f 84 08 01 00 00    	je     406cc2 <__intel_new_feature_proc_init_n+0x1f2>
  406bba:	44 89 e6             	mov    %r12d,%esi
  406bbd:	48 8d 7c 24 20       	lea    0x20(%rsp),%rdi
  406bc2:	e8 e9 7d 01 00       	callq  41e9b0 <__libirc_get_cpu_feature>
  406bc7:	85 c0                	test   %eax,%eax
  406bc9:	0f 8c 3e 02 00 00    	jl     406e0d <__intel_new_feature_proc_init_n+0x33d>
  406bcf:	44 89 e7             	mov    %r12d,%edi
  406bd2:	e8 b9 7b 01 00       	callq  41e790 <__libirc_get_feature_name>
  406bd7:	48 89 c3             	mov    %rax,%rbx
  406bda:	48 85 db             	test   %rbx,%rbx
  406bdd:	0f 84 07 02 00 00    	je     406dea <__intel_new_feature_proc_init_n+0x31a>
  406be3:	80 3b 00             	cmpb   $0x0,(%rbx)
  406be6:	0f 84 fe 01 00 00    	je     406dea <__intel_new_feature_proc_init_n+0x31a>
  406bec:	80 7c 24 30 00       	cmpb   $0x0,0x30(%rsp)
  406bf1:	0f 84 9f 00 00 00    	je     406c96 <__intel_new_feature_proc_init_n+0x1c6>
  406bf7:	4d 85 f6             	test   %r14,%r14
  406bfa:	0f 84 91 00 00 00    	je     406c91 <__intel_new_feature_proc_init_n+0x1c1>
  406c00:	4c 89 f7             	mov    %r14,%rdi
  406c03:	e8 d8 c4 ff ff       	callq  4030e0 <strlen@plt>
  406c08:	48 8b 7c 24 18       	mov    0x18(%rsp),%rdi
  406c0d:	49 89 c7             	mov    %rax,%r15
  406c10:	e8 cb c4 ff ff       	callq  4030e0 <strlen@plt>
  406c15:	48 89 df             	mov    %rbx,%rdi
  406c18:	48 89 c5             	mov    %rax,%rbp
  406c1b:	e8 c0 c4 ff ff       	callq  4030e0 <strlen@plt>
  406c20:	4d 03 fd             	add    %r13,%r15
  406c23:	4c 03 fd             	add    %rbp,%r15
  406c26:	49 8d 4c 07 02       	lea    0x2(%r15,%rax,1),%rcx
  406c2b:	48 81 f9 00 04 00 00 	cmp    $0x400,%rcx
  406c32:	0f 83 7c 01 00 00    	jae    406db4 <__intel_new_feature_proc_init_n+0x2e4>
  406c38:	49 f7 dd             	neg    %r13
  406c3b:	48 8d 7c 24 30       	lea    0x30(%rsp),%rdi
  406c40:	49 81 c5 ff 03 00 00 	add    $0x3ff,%r13
  406c47:	48 8d 35 b6 aa 01 00 	lea    0x1aab6(%rip),%rsi        # 421704 <__$U1+0x316>
  406c4e:	4c 89 ea             	mov    %r13,%rdx
  406c51:	b9 00 04 00 00       	mov    $0x400,%ecx
  406c56:	e8 95 c4 ff ff       	callq  4030f0 <__strncat_chk@plt>
  406c5b:	48 8d 7c 24 30       	lea    0x30(%rsp),%rdi
  406c60:	e8 7b c4 ff ff       	callq  4030e0 <strlen@plt>
  406c65:	48 63 d0             	movslq %eax,%rdx
  406c68:	48 8d 7c 24 30       	lea    0x30(%rsp),%rdi
  406c6d:	48 f7 da             	neg    %rdx
  406c70:	4c 89 f6             	mov    %r14,%rsi
  406c73:	48 81 c2 ff 03 00 00 	add    $0x3ff,%rdx
  406c7a:	b9 00 04 00 00       	mov    $0x400,%ecx
  406c7f:	e8 6c c4 ff ff       	callq  4030f0 <__strncat_chk@plt>
  406c84:	48 8d 7c 24 30       	lea    0x30(%rsp),%rdi
  406c89:	e8 52 c4 ff ff       	callq  4030e0 <strlen@plt>
  406c8e:	4c 63 e8             	movslq %eax,%r13
  406c91:	49 89 de             	mov    %rbx,%r14
  406c94:	eb 2c                	jmp    406cc2 <__intel_new_feature_proc_init_n+0x1f2>
  406c96:	49 f7 dd             	neg    %r13
  406c99:	48 8d 7c 24 30       	lea    0x30(%rsp),%rdi
  406c9e:	49 81 c5 ff 03 00 00 	add    $0x3ff,%r13
  406ca5:	48 89 de             	mov    %rbx,%rsi
  406ca8:	4c 89 ea             	mov    %r13,%rdx
  406cab:	b9 00 04 00 00       	mov    $0x400,%ecx
  406cb0:	e8 3b c4 ff ff       	callq  4030f0 <__strncat_chk@plt>
  406cb5:	48 8d 7c 24 30       	lea    0x30(%rsp),%rdi
  406cba:	e8 21 c4 ff ff       	callq  4030e0 <strlen@plt>
  406cbf:	4c 63 e8             	movslq %eax,%r13
  406cc2:	41 ff c4             	inc    %r12d
  406cc5:	41 83 fc 40          	cmp    $0x40,%r12d
  406cc9:	0f 8c c6 fe ff ff    	jl     406b95 <__intel_new_feature_proc_init_n+0xc5>
  406ccf:	48 8b 44 24 18       	mov    0x18(%rsp),%rax
  406cd4:	4c 8b 7c 24 10       	mov    0x10(%rsp),%r15
  406cd9:	48 8b 5c 24 08       	mov    0x8(%rsp),%rbx
  406cde:	48 8b 2c 24          	mov    (%rsp),%rbp
  406ce2:	4d 85 f6             	test   %r14,%r14
  406ce5:	74 48                	je     406d2f <__intel_new_feature_proc_init_n+0x25f>
  406ce7:	49 f7 dd             	neg    %r13
  406cea:	48 8d 7c 24 30       	lea    0x30(%rsp),%rdi
  406cef:	49 81 c5 ff 03 00 00 	add    $0x3ff,%r13
  406cf6:	48 89 c6             	mov    %rax,%rsi
  406cf9:	4c 89 ea             	mov    %r13,%rdx
  406cfc:	b9 00 04 00 00       	mov    $0x400,%ecx
  406d01:	e8 ea c3 ff ff       	callq  4030f0 <__strncat_chk@plt>
  406d06:	48 8d 7c 24 30       	lea    0x30(%rsp),%rdi
  406d0b:	e8 d0 c3 ff ff       	callq  4030e0 <strlen@plt>
  406d10:	48 63 d0             	movslq %eax,%rdx
  406d13:	48 8d 7c 24 30       	lea    0x30(%rsp),%rdi
  406d18:	48 f7 da             	neg    %rdx
  406d1b:	4c 89 f6             	mov    %r14,%rsi
  406d1e:	48 81 c2 ff 03 00 00 	add    $0x3ff,%rdx
  406d25:	b9 00 04 00 00       	mov    $0x400,%ecx
  406d2a:	e8 c1 c3 ff ff       	callq  4030f0 <__strncat_chk@plt>
  406d2f:	80 7c 24 30 00       	cmpb   $0x0,0x30(%rsp)
  406d34:	75 3d                	jne    406d73 <__intel_new_feature_proc_init_n+0x2a3>
  406d36:	33 f6                	xor    %esi,%esi
  406d38:	bf 01 00 00 00       	mov    $0x1,%edi
  406d3d:	33 d2                	xor    %edx,%edx
  406d3f:	33 c0                	xor    %eax,%eax
  406d41:	e8 3a 77 01 00       	callq  41e480 <__libirc_print>
  406d46:	bf 01 00 00 00       	mov    $0x1,%edi
  406d4b:	be 3a 00 00 00       	mov    $0x3a,%esi
  406d50:	33 d2                	xor    %edx,%edx
  406d52:	33 c0                	xor    %eax,%eax
  406d54:	e8 27 77 01 00       	callq  41e480 <__libirc_print>
  406d59:	33 f6                	xor    %esi,%esi
  406d5b:	bf 01 00 00 00       	mov    $0x1,%edi
  406d60:	33 d2                	xor    %edx,%edx
  406d62:	33 c0                	xor    %eax,%eax
  406d64:	e8 17 77 01 00       	callq  41e480 <__libirc_print>
  406d69:	bf 01 00 00 00       	mov    $0x1,%edi
  406d6e:	e8 3d c5 ff ff       	callq  4032b0 <exit@plt>
  406d73:	33 f6                	xor    %esi,%esi
  406d75:	bf 01 00 00 00       	mov    $0x1,%edi
  406d7a:	33 d2                	xor    %edx,%edx
  406d7c:	33 c0                	xor    %eax,%eax
  406d7e:	e8 fd 76 01 00       	callq  41e480 <__libirc_print>
  406d83:	bf 01 00 00 00       	mov    $0x1,%edi
  406d88:	be 38 00 00 00       	mov    $0x38,%esi
  406d8d:	89 fa                	mov    %edi,%edx
  406d8f:	48 8d 4c 24 30       	lea    0x30(%rsp),%rcx
  406d94:	33 c0                	xor    %eax,%eax
  406d96:	e8 e5 76 01 00       	callq  41e480 <__libirc_print>
  406d9b:	eb bc                	jmp    406d59 <__intel_new_feature_proc_init_n+0x289>
  406d9d:	33 f6                	xor    %esi,%esi
  406d9f:	bf 01 00 00 00       	mov    $0x1,%edi
  406da4:	33 d2                	xor    %edx,%edx
  406da6:	33 c0                	xor    %eax,%eax
  406da8:	e8 d3 76 01 00       	callq  41e480 <__libirc_print>
  406dad:	eb 97                	jmp    406d46 <__intel_new_feature_proc_init_n+0x276>
  406daf:	e8 bc c4 ff ff       	callq  403270 <__stack_chk_fail@plt>
  406db4:	49 f7 dd             	neg    %r13
  406db7:	48 8d 7c 24 30       	lea    0x30(%rsp),%rdi
  406dbc:	49 81 c5 ff 03 00 00 	add    $0x3ff,%r13
  406dc3:	b9 00 04 00 00       	mov    $0x400,%ecx
  406dc8:	48 8b 47 e8          	mov    -0x18(%rdi),%rax
  406dcc:	48 89 c6             	mov    %rax,%rsi
  406dcf:	4c 89 ea             	mov    %r13,%rdx
  406dd2:	4c 8b 7c 24 10       	mov    0x10(%rsp),%r15
  406dd7:	48 8b 5c 24 08       	mov    0x8(%rsp),%rbx
  406ddc:	48 8b 2c 24          	mov    (%rsp),%rbp
  406de0:	e8 0b c3 ff ff       	callq  4030f0 <__strncat_chk@plt>
  406de5:	e9 1c ff ff ff       	jmpq   406d06 <__intel_new_feature_proc_init_n+0x236>
  406dea:	4c 8b 7c 24 10       	mov    0x10(%rsp),%r15
  406def:	48 8b 5c 24 08       	mov    0x8(%rsp),%rbx
  406df4:	48 8b 2c 24          	mov    (%rsp),%rbp
  406df8:	33 f6                	xor    %esi,%esi
  406dfa:	bf 01 00 00 00       	mov    $0x1,%edi
  406dff:	33 d2                	xor    %edx,%edx
  406e01:	33 c0                	xor    %eax,%eax
  406e03:	e8 78 76 01 00       	callq  41e480 <__libirc_print>
  406e08:	e9 39 ff ff ff       	jmpq   406d46 <__intel_new_feature_proc_init_n+0x276>
  406e0d:	33 f6                	xor    %esi,%esi
  406e0f:	bf 01 00 00 00       	mov    $0x1,%edi
  406e14:	33 d2                	xor    %edx,%edx
  406e16:	33 c0                	xor    %eax,%eax
  406e18:	4c 8b 7c 24 10       	mov    0x10(%rsp),%r15
  406e1d:	48 8b 5c 24 08       	mov    0x8(%rsp),%rbx
  406e22:	48 8b 2c 24          	mov    (%rsp),%rbp
  406e26:	e8 55 76 01 00       	callq  41e480 <__libirc_print>
  406e2b:	e9 16 ff ff ff       	jmpq   406d46 <__intel_new_feature_proc_init_n+0x276>
  406e30:	e8 db 85 01 00       	callq  41f410 <__intel_cpu_features_init>
  406e35:	85 c0                	test   %eax,%eax
  406e37:	75 0b                	jne    406e44 <__intel_new_feature_proc_init_n+0x374>
  406e39:	49 83 3c 24 00       	cmpq   $0x0,(%r12)
  406e3e:	0f 85 d3 fc ff ff    	jne    406b17 <__intel_new_feature_proc_init_n+0x47>
  406e44:	33 f6                	xor    %esi,%esi
  406e46:	bf 01 00 00 00       	mov    $0x1,%edi
  406e4b:	33 d2                	xor    %edx,%edx
  406e4d:	33 c0                	xor    %eax,%eax
  406e4f:	e8 2c 76 01 00       	callq  41e480 <__libirc_print>
  406e54:	bf 01 00 00 00       	mov    $0x1,%edi
  406e59:	be 3b 00 00 00       	mov    $0x3b,%esi
  406e5e:	33 d2                	xor    %edx,%edx
  406e60:	33 c0                	xor    %eax,%eax
  406e62:	e8 19 76 01 00       	callq  41e480 <__libirc_print>
  406e67:	e9 ed fe ff ff       	jmpq   406d59 <__intel_new_feature_proc_init_n+0x289>
  406e6c:	0f 1f 40 00          	nopl   0x0(%rax)

0000000000406e70 <__intel_sse4_strlen>:
  406e70:	f3 0f 1e fa          	endbr64 
  406e74:	48 83 c0 10          	add    $0x10,%rax
  406e78:	f3 0f 6f 00          	movdqu (%rax),%xmm0
  406e7c:	66 0f 3a 63 c0 3a    	pcmpistri $0x3a,%xmm0,%xmm0
  406e82:	89 c9                	mov    %ecx,%ecx
  406e84:	73 ee                	jae    406e74 <__intel_sse4_strlen+0x4>
  406e86:	48 2b ca             	sub    %rdx,%rcx
  406e89:	48 03 c1             	add    %rcx,%rax
  406e8c:	c3                   	retq   
  406e8d:	0f 1f 00             	nopl   (%rax)

0000000000406e90 <__intel_sse4_strchr>:
  406e90:	f3 0f 1e fa          	endbr64 
  406e94:	66 0f 38 17 c9       	ptest  %xmm1,%xmm1
  406e99:	74 13                	je     406eae <__intel_sse4_strchr+0x1e>
  406e9b:	48 83 c0 10          	add    $0x10,%rax
  406e9f:	66 0f 3a 63 08 02    	pcmpistri $0x2,(%rax),%xmm1
  406ea5:	89 c9                	mov    %ecx,%ecx
  406ea7:	72 0e                	jb     406eb7 <__intel_sse4_strchr+0x27>
  406ea9:	75 f0                	jne    406e9b <__intel_sse4_strchr+0xb>
  406eab:	33 c0                	xor    %eax,%eax
  406ead:	c3                   	retq   
  406eae:	48 8d 0d 0b 00 00 00 	lea    0xb(%rip),%rcx        # 406ec0 <__intel_sse4_strend>
  406eb5:	ff e1                	jmpq   *%rcx
  406eb7:	48 03 c1             	add    %rcx,%rax
  406eba:	c3                   	retq   
  406ebb:	0f 1f 44 00 00       	nopl   0x0(%rax,%rax,1)

0000000000406ec0 <__intel_sse4_strend>:
  406ec0:	f3 0f 1e fa          	endbr64 
  406ec4:	48 83 c0 10          	add    $0x10,%rax
  406ec8:	66 0f 6f 00          	movdqa (%rax),%xmm0
  406ecc:	66 0f 3a 63 c0 3a    	pcmpistri $0x3a,%xmm0,%xmm0
  406ed2:	73 f0                	jae    406ec4 <__intel_sse4_strend+0x4>
  406ed4:	89 c9                	mov    %ecx,%ecx
  406ed6:	48 03 c1             	add    %rcx,%rax
  406ed9:	c3                   	retq   
  406eda:	66 0f 1f 44 00 00    	nopw   0x0(%rax,%rax,1)

0000000000406ee0 <__intel_sse4_strncmp>:
  406ee0:	f3 0f 1e fa          	endbr64 
  406ee4:	56                   	push   %rsi
  406ee5:	49 89 d2             	mov    %rdx,%r10
  406ee8:	49 89 c8             	mov    %rcx,%r8
  406eeb:	48 89 c2             	mov    %rax,%rdx
  406eee:	4d 85 d2             	test   %r10,%r10
  406ef1:	0f 84 58 02 00 00    	je     40714f <__intel_sse4_strncmp+0x26f>
  406ef7:	f6 c2 01             	test   $0x1,%dl
  406efa:	74 26                	je     406f22 <__intel_sse4_strncmp+0x42>
  406efc:	0f b6 02             	movzbl (%rdx),%eax
  406eff:	41 0f b6 08          	movzbl (%r8),%ecx
  406f03:	3b c1                	cmp    %ecx,%eax
  406f05:	0f 85 f9 01 00 00    	jne    407104 <__intel_sse4_strncmp+0x224>
  406f0b:	48 ff c2             	inc    %rdx
  406f0e:	49 ff c0             	inc    %r8
  406f11:	49 ff ca             	dec    %r10
  406f14:	0f 84 35 02 00 00    	je     40714f <__intel_sse4_strncmp+0x26f>
  406f1a:	85 c0                	test   %eax,%eax
  406f1c:	0f 84 2d 02 00 00    	je     40714f <__intel_sse4_strncmp+0x26f>
  406f22:	89 d0                	mov    %edx,%eax
  406f24:	a8 02                	test   $0x2,%al
  406f26:	74 50                	je     406f78 <__intel_sse4_strncmp+0x98>
  406f28:	49 83 fa 02          	cmp    $0x2,%r10
  406f2c:	0f 82 dd 01 00 00    	jb     40710f <__intel_sse4_strncmp+0x22f>
  406f32:	0f b7 02             	movzwl (%rdx),%eax
  406f35:	0f b6 c8             	movzbl %al,%ecx
  406f38:	45 0f b6 18          	movzbl (%r8),%r11d
  406f3c:	41 3b cb             	cmp    %r11d,%ecx
  406f3f:	0f 85 c3 01 00 00    	jne    407108 <__intel_sse4_strncmp+0x228>
  406f45:	85 c9                	test   %ecx,%ecx
  406f47:	0f 84 02 02 00 00    	je     40714f <__intel_sse4_strncmp+0x26f>
  406f4d:	41 0f b7 08          	movzwl (%r8),%ecx
  406f51:	3b c1                	cmp    %ecx,%eax
  406f53:	0f 85 ab 01 00 00    	jne    407104 <__intel_sse4_strncmp+0x224>
  406f59:	a9 00 ff ff ff       	test   $0xffffff00,%eax
  406f5e:	0f 84 eb 01 00 00    	je     40714f <__intel_sse4_strncmp+0x26f>
  406f64:	48 83 c2 02          	add    $0x2,%rdx
  406f68:	49 83 c0 02          	add    $0x2,%r8
  406f6c:	49 83 c2 fe          	add    $0xfffffffffffffffe,%r10
  406f70:	0f 84 d9 01 00 00    	je     40714f <__intel_sse4_strncmp+0x26f>
  406f76:	89 d0                	mov    %edx,%eax
  406f78:	a8 04                	test   $0x4,%al
  406f7a:	74 64                	je     406fe0 <__intel_sse4_strncmp+0x100>
  406f7c:	49 83 fa 04          	cmp    $0x4,%r10
  406f80:	0f 82 89 01 00 00    	jb     40710f <__intel_sse4_strncmp+0x22f>
  406f86:	b9 02 00 00 00       	mov    $0x2,%ecx
  406f8b:	48 89 34 24          	mov    %rsi,(%rsp)
  406f8f:	0f b7 32             	movzwl (%rdx),%esi
  406f92:	40 0f b6 c6          	movzbl %sil,%eax
  406f96:	45 0f b6 18          	movzbl (%r8),%r11d
  406f9a:	41 3b c3             	cmp    %r11d,%eax
  406f9d:	0f 85 0c 02 00 00    	jne    4071af <__intel_sse4_strncmp+0x2cf>
  406fa3:	85 c0                	test   %eax,%eax
  406fa5:	0f 84 ab 01 00 00    	je     407156 <__intel_sse4_strncmp+0x276>
  406fab:	45 0f b7 18          	movzwl (%r8),%r11d
  406faf:	41 3b f3             	cmp    %r11d,%esi
  406fb2:	0f 85 ec 01 00 00    	jne    4071a4 <__intel_sse4_strncmp+0x2c4>
  406fb8:	f7 c6 00 ff ff ff    	test   $0xffffff00,%esi
  406fbe:	0f 84 92 01 00 00    	je     407156 <__intel_sse4_strncmp+0x276>
  406fc4:	48 83 c2 02          	add    $0x2,%rdx
  406fc8:	49 83 c0 02          	add    $0x2,%r8
  406fcc:	ff c9                	dec    %ecx
  406fce:	75 bf                	jne    406f8f <__intel_sse4_strncmp+0xaf>
  406fd0:	48 8b 34 24          	mov    (%rsp),%rsi
  406fd4:	49 83 c2 fc          	add    $0xfffffffffffffffc,%r10
  406fd8:	0f 84 71 01 00 00    	je     40714f <__intel_sse4_strncmp+0x26f>
  406fde:	89 d0                	mov    %edx,%eax
  406fe0:	a8 08                	test   $0x8,%al
  406fe2:	74 62                	je     407046 <__intel_sse4_strncmp+0x166>
  406fe4:	49 83 fa 08          	cmp    $0x8,%r10
  406fe8:	0f 82 21 01 00 00    	jb     40710f <__intel_sse4_strncmp+0x22f>
  406fee:	41 bb 04 00 00 00    	mov    $0x4,%r11d
  406ff4:	48 89 34 24          	mov    %rsi,(%rsp)
  406ff8:	0f b7 32             	movzwl (%rdx),%esi
  406ffb:	40 0f b6 c6          	movzbl %sil,%eax
  406fff:	41 0f b6 08          	movzbl (%r8),%ecx
  407003:	3b c1                	cmp    %ecx,%eax
  407005:	0f 85 5d 01 00 00    	jne    407168 <__intel_sse4_strncmp+0x288>
  40700b:	85 c0                	test   %eax,%eax
  40700d:	0f 84 43 01 00 00    	je     407156 <__intel_sse4_strncmp+0x276>
  407013:	41 0f b7 08          	movzwl (%r8),%ecx
  407017:	3b f1                	cmp    %ecx,%esi
  407019:	0f 85 3f 01 00 00    	jne    40715e <__intel_sse4_strncmp+0x27e>
  40701f:	f7 c6 00 ff ff ff    	test   $0xffffff00,%esi
  407025:	0f 84 2b 01 00 00    	je     407156 <__intel_sse4_strncmp+0x276>
  40702b:	48 83 c2 02          	add    $0x2,%rdx
  40702f:	49 83 c0 02          	add    $0x2,%r8
  407033:	41 ff cb             	dec    %r11d
  407036:	75 c0                	jne    406ff8 <__intel_sse4_strncmp+0x118>
  407038:	48 8b 34 24          	mov    (%rsp),%rsi
  40703c:	49 83 c2 f8          	add    $0xfffffffffffffff8,%r10
  407040:	0f 84 09 01 00 00    	je     40714f <__intel_sse4_strncmp+0x26f>
  407046:	45 33 db             	xor    %r11d,%r11d
  407049:	44 89 c0             	mov    %r8d,%eax
  40704c:	25 ff 0f 00 00       	and    $0xfff,%eax
  407051:	f7 d8                	neg    %eax
  407053:	05 00 10 00 00       	add    $0x1000,%eax
  407058:	c1 e8 04             	shr    $0x4,%eax
  40705b:	74 32                	je     40708f <__intel_sse4_strncmp+0x1af>
  40705d:	f3 0f 6f 02          	movdqu (%rdx),%xmm0
  407061:	66 41 0f 3a 63 00 1a 	pcmpistri $0x1a,(%r8),%xmm0
  407068:	89 c9                	mov    %ecx,%ecx
  40706a:	0f 82 15 01 00 00    	jb     407185 <__intel_sse4_strncmp+0x2a5>
  407070:	0f 84 14 01 00 00    	je     40718a <__intel_sse4_strncmp+0x2aa>
  407076:	49 83 c2 f0          	add    $0xfffffffffffffff0,%r10
  40707a:	48 83 c2 10          	add    $0x10,%rdx
  40707e:	49 83 c0 10          	add    $0x10,%r8
  407082:	4d 85 d2             	test   %r10,%r10
  407085:	0f 8e ff 00 00 00    	jle    40718a <__intel_sse4_strncmp+0x2aa>
  40708b:	ff c8                	dec    %eax
  40708d:	75 ce                	jne    40705d <__intel_sse4_strncmp+0x17d>
  40708f:	4c 87 c2             	xchg   %r8,%rdx
  407092:	41 81 f3 00 00 00 80 	xor    $0x80000000,%r11d
  407099:	f6 c2 01             	test   $0x1,%dl
  40709c:	74 23                	je     4070c1 <__intel_sse4_strncmp+0x1e1>
  40709e:	0f b6 02             	movzbl (%rdx),%eax
  4070a1:	41 0f b6 08          	movzbl (%r8),%ecx
  4070a5:	3b c1                	cmp    %ecx,%eax
  4070a7:	75 11                	jne    4070ba <__intel_sse4_strncmp+0x1da>
  4070a9:	85 c0                	test   %eax,%eax
  4070ab:	74 50                	je     4070fd <__intel_sse4_strncmp+0x21d>
  4070ad:	48 ff c2             	inc    %rdx
  4070b0:	49 ff c0             	inc    %r8
  4070b3:	49 ff ca             	dec    %r10
  4070b6:	74 45                	je     4070fd <__intel_sse4_strncmp+0x21d>
  4070b8:	eb 07                	jmp    4070c1 <__intel_sse4_strncmp+0x1e1>
  4070ba:	2b c1                	sub    %ecx,%eax
  4070bc:	41 33 c3             	xor    %r11d,%eax
  4070bf:	eb 3e                	jmp    4070ff <__intel_sse4_strncmp+0x21f>
  4070c1:	f6 c2 0f             	test   $0xf,%dl
  4070c4:	74 83                	je     407049 <__intel_sse4_strncmp+0x169>
  4070c6:	41 8a 08             	mov    (%r8),%cl
  4070c9:	0f b7 02             	movzwl (%rdx),%eax
  4070cc:	3a c1                	cmp    %cl,%al
  4070ce:	0f 85 9c 00 00 00    	jne    407170 <__intel_sse4_strncmp+0x290>
  4070d4:	84 c0                	test   %al,%al
  4070d6:	74 25                	je     4070fd <__intel_sse4_strncmp+0x21d>
  4070d8:	4c 89 d1             	mov    %r10,%rcx
  4070db:	48 ff c9             	dec    %rcx
  4070de:	74 1d                	je     4070fd <__intel_sse4_strncmp+0x21d>
  4070e0:	41 0f b7 08          	movzwl (%r8),%ecx
  4070e4:	3b c1                	cmp    %ecx,%eax
  4070e6:	75 d2                	jne    4070ba <__intel_sse4_strncmp+0x1da>
  4070e8:	a9 00 ff ff ff       	test   $0xffffff00,%eax
  4070ed:	74 0e                	je     4070fd <__intel_sse4_strncmp+0x21d>
  4070ef:	48 83 c2 02          	add    $0x2,%rdx
  4070f3:	49 83 c0 02          	add    $0x2,%r8
  4070f7:	49 83 c2 fe          	add    $0xfffffffffffffffe,%r10
  4070fb:	75 c4                	jne    4070c1 <__intel_sse4_strncmp+0x1e1>
  4070fd:	33 c0                	xor    %eax,%eax
  4070ff:	48 83 c4 08          	add    $0x8,%rsp
  407103:	c3                   	retq   
  407104:	2b c1                	sub    %ecx,%eax
  407106:	eb 49                	jmp    407151 <__intel_sse4_strncmp+0x271>
  407108:	89 c8                	mov    %ecx,%eax
  40710a:	41 2b c3             	sub    %r11d,%eax
  40710d:	eb 42                	jmp    407151 <__intel_sse4_strncmp+0x271>
  40710f:	33 c9                	xor    %ecx,%ecx
  407111:	0f b6 04 11          	movzbl (%rcx,%rdx,1),%eax
  407115:	46 0f b6 1c 01       	movzbl (%rcx,%r8,1),%r11d
  40711a:	41 3b c3             	cmp    %r11d,%eax
  40711d:	0f 85 95 00 00 00    	jne    4071b8 <__intel_sse4_strncmp+0x2d8>
  407123:	85 c0                	test   %eax,%eax
  407125:	74 28                	je     40714f <__intel_sse4_strncmp+0x26f>
  407127:	4c 89 d0             	mov    %r10,%rax
  40712a:	48 ff c8             	dec    %rax
  40712d:	74 20                	je     40714f <__intel_sse4_strncmp+0x26f>
  40712f:	44 8d 59 01          	lea    0x1(%rcx),%r11d
  407133:	41 0f b6 04 13       	movzbl (%r11,%rdx,1),%eax
  407138:	47 0f b6 1c 03       	movzbl (%r11,%r8,1),%r11d
  40713d:	41 3b c3             	cmp    %r11d,%eax
  407140:	75 76                	jne    4071b8 <__intel_sse4_strncmp+0x2d8>
  407142:	85 c0                	test   %eax,%eax
  407144:	74 09                	je     40714f <__intel_sse4_strncmp+0x26f>
  407146:	83 c1 02             	add    $0x2,%ecx
  407149:	49 83 c2 fe          	add    $0xfffffffffffffffe,%r10
  40714d:	75 c2                	jne    407111 <__intel_sse4_strncmp+0x231>
  40714f:	33 c0                	xor    %eax,%eax
  407151:	48 83 c4 08          	add    $0x8,%rsp
  407155:	c3                   	retq   
  407156:	48 8b 34 24          	mov    (%rsp),%rsi
  40715a:	33 c0                	xor    %eax,%eax
  40715c:	eb f3                	jmp    407151 <__intel_sse4_strncmp+0x271>
  40715e:	89 f0                	mov    %esi,%eax
  407160:	48 8b 34 24          	mov    (%rsp),%rsi
  407164:	2b c1                	sub    %ecx,%eax
  407166:	eb e9                	jmp    407151 <__intel_sse4_strncmp+0x271>
  407168:	48 8b 34 24          	mov    (%rsp),%rsi
  40716c:	2b c1                	sub    %ecx,%eax
  40716e:	eb e1                	jmp    407151 <__intel_sse4_strncmp+0x271>
  407170:	f3 0f 1e fa          	endbr64 
  407174:	0f b6 c0             	movzbl %al,%eax
  407177:	41 0f b6 10          	movzbl (%r8),%edx
  40717b:	2b c2                	sub    %edx,%eax
  40717d:	41 33 c3             	xor    %r11d,%eax
  407180:	e9 7a ff ff ff       	jmpq   4070ff <__intel_sse4_strncmp+0x21f>
  407185:	49 3b ca             	cmp    %r10,%rcx
  407188:	72 07                	jb     407191 <__intel_sse4_strncmp+0x2b1>
  40718a:	33 c0                	xor    %eax,%eax
  40718c:	48 83 c4 08          	add    $0x8,%rsp
  407190:	c3                   	retq   
  407191:	0f b6 04 11          	movzbl (%rcx,%rdx,1),%eax
  407195:	42 0f b6 0c 01       	movzbl (%rcx,%r8,1),%ecx
  40719a:	2b c1                	sub    %ecx,%eax
  40719c:	41 33 c3             	xor    %r11d,%eax
  40719f:	48 83 c4 08          	add    $0x8,%rsp
  4071a3:	c3                   	retq   
  4071a4:	89 f0                	mov    %esi,%eax
  4071a6:	48 8b 34 24          	mov    (%rsp),%rsi
  4071aa:	41 2b c3             	sub    %r11d,%eax
  4071ad:	eb a2                	jmp    407151 <__intel_sse4_strncmp+0x271>
  4071af:	48 8b 34 24          	mov    (%rsp),%rsi
  4071b3:	41 2b c3             	sub    %r11d,%eax
  4071b6:	eb 99                	jmp    407151 <__intel_sse4_strncmp+0x271>
  4071b8:	41 2b c3             	sub    %r11d,%eax
  4071bb:	eb 94                	jmp    407151 <__intel_sse4_strncmp+0x271>
  4071bd:	0f 1f 00             	nopl   (%rax)

00000000004071c0 <__intel_sse4_atol>:
  4071c0:	f3 0f 1e fa          	endbr64 
  4071c4:	56                   	push   %rsi
  4071c5:	57                   	push   %rdi
  4071c6:	55                   	push   %rbp
  4071c7:	48 81 ec a0 00 00 00 	sub    $0xa0,%rsp
  4071ce:	49 89 c8             	mov    %rcx,%r8
  4071d1:	4d 89 c1             	mov    %r8,%r9
  4071d4:	33 ed                	xor    %ebp,%ebp
  4071d6:	49 83 e1 0f          	and    $0xf,%r9
  4071da:	40 32 ff             	xor    %dil,%dil
  4071dd:	4d 2b c1             	sub    %r9,%r8
  4071e0:	44 0f 11 3c 24       	movups %xmm15,(%rsp)
  4071e5:	44 0f 11 74 24 10    	movups %xmm14,0x10(%rsp)
  4071eb:	44 0f 11 6c 24 60    	movups %xmm13,0x60(%rsp)
  4071f1:	44 0f 11 64 24 70    	movups %xmm12,0x70(%rsp)
  4071f7:	44 0f 11 9c 24 80 00 	movups %xmm11,0x80(%rsp)
  4071fe:	00 00 
  407200:	44 0f 11 94 24 90 00 	movups %xmm10,0x90(%rsp)
  407207:	00 00 
  407209:	44 0f 11 4c 24 50    	movups %xmm9,0x50(%rsp)
  40720f:	44 0f 11 44 24 40    	movups %xmm8,0x40(%rsp)
  407215:	0f 11 7c 24 30       	movups %xmm7,0x30(%rsp)
  40721a:	0f 11 74 24 20       	movups %xmm6,0x20(%rsp)
  40721f:	f3 41 0f 6f 08       	movdqu (%r8),%xmm1
  407224:	48 8d 15 e5 a4 01 00 	lea    0x1a4e5(%rip),%rdx        # 421710 <__$U1+0x322>
  40722b:	42 0f b7 14 4a       	movzwl (%rdx,%r9,2),%edx
  407230:	48 8d 05 06 00 00 00 	lea    0x6(%rip),%rax        # 40723d <__intel_sse4_atol+0x7d>
  407237:	48 03 c2             	add    %rdx,%rax
  40723a:	3e ff e0             	notrack jmpq *%rax
  40723d:	f3 0f 1e fa          	endbr64 
  407241:	66 0f 73 d9 0f       	psrldq $0xf,%xmm1
  407246:	f3 0f 6f 05 02 a5 01 	movdqu 0x1a502(%rip),%xmm0        # 421750 <__$U1+0x362>
  40724d:	00 
  40724e:	66 0f 3a 0f c8 01    	palignr $0x1,%xmm0,%xmm1
  407254:	e9 74 01 00 00       	jmpq   4073cd <__intel_sse4_atol+0x20d>
  407259:	f3 0f 1e fa          	endbr64 
  40725d:	66 0f 73 d9 0e       	psrldq $0xe,%xmm1
  407262:	f3 0f 6f 05 e6 a4 01 	movdqu 0x1a4e6(%rip),%xmm0        # 421750 <__$U1+0x362>
  407269:	00 
  40726a:	66 0f 3a 0f c8 02    	palignr $0x2,%xmm0,%xmm1
  407270:	e9 58 01 00 00       	jmpq   4073cd <__intel_sse4_atol+0x20d>
  407275:	f3 0f 1e fa          	endbr64 
  407279:	66 0f 73 d9 0d       	psrldq $0xd,%xmm1
  40727e:	f3 0f 6f 05 ca a4 01 	movdqu 0x1a4ca(%rip),%xmm0        # 421750 <__$U1+0x362>
  407285:	00 
  407286:	66 0f 3a 0f c8 03    	palignr $0x3,%xmm0,%xmm1
  40728c:	e9 3c 01 00 00       	jmpq   4073cd <__intel_sse4_atol+0x20d>
  407291:	f3 0f 1e fa          	endbr64 
  407295:	66 0f 73 d9 0c       	psrldq $0xc,%xmm1
  40729a:	f3 0f 6f 05 ae a4 01 	movdqu 0x1a4ae(%rip),%xmm0        # 421750 <__$U1+0x362>
  4072a1:	00 
  4072a2:	66 0f 3a 0f c8 04    	palignr $0x4,%xmm0,%xmm1
  4072a8:	e9 20 01 00 00       	jmpq   4073cd <__intel_sse4_atol+0x20d>
  4072ad:	f3 0f 1e fa          	endbr64 
  4072b1:	66 0f 73 d9 0b       	psrldq $0xb,%xmm1
  4072b6:	f3 0f 6f 05 92 a4 01 	movdqu 0x1a492(%rip),%xmm0        # 421750 <__$U1+0x362>
  4072bd:	00 
  4072be:	66 0f 3a 0f c8 05    	palignr $0x5,%xmm0,%xmm1
  4072c4:	e9 04 01 00 00       	jmpq   4073cd <__intel_sse4_atol+0x20d>
  4072c9:	f3 0f 1e fa          	endbr64 
  4072cd:	66 0f 73 d9 0a       	psrldq $0xa,%xmm1
  4072d2:	f3 0f 6f 05 76 a4 01 	movdqu 0x1a476(%rip),%xmm0        # 421750 <__$U1+0x362>
  4072d9:	00 
  4072da:	66 0f 3a 0f c8 06    	palignr $0x6,%xmm0,%xmm1
  4072e0:	e9 e8 00 00 00       	jmpq   4073cd <__intel_sse4_atol+0x20d>
  4072e5:	f3 0f 1e fa          	endbr64 
  4072e9:	66 0f 73 d9 09       	psrldq $0x9,%xmm1
  4072ee:	f3 0f 6f 05 5a a4 01 	movdqu 0x1a45a(%rip),%xmm0        # 421750 <__$U1+0x362>
  4072f5:	00 
  4072f6:	66 0f 3a 0f c8 07    	palignr $0x7,%xmm0,%xmm1
  4072fc:	e9 cc 00 00 00       	jmpq   4073cd <__intel_sse4_atol+0x20d>
  407301:	f3 0f 1e fa          	endbr64 
  407305:	66 0f 73 d9 08       	psrldq $0x8,%xmm1
  40730a:	f3 0f 6f 05 3e a4 01 	movdqu 0x1a43e(%rip),%xmm0        # 421750 <__$U1+0x362>
  407311:	00 
  407312:	66 0f 3a 0f c8 08    	palignr $0x8,%xmm0,%xmm1
  407318:	e9 b0 00 00 00       	jmpq   4073cd <__intel_sse4_atol+0x20d>
  40731d:	f3 0f 1e fa          	endbr64 
  407321:	66 0f 73 d9 07       	psrldq $0x7,%xmm1
  407326:	f3 0f 6f 05 22 a4 01 	movdqu 0x1a422(%rip),%xmm0        # 421750 <__$U1+0x362>
  40732d:	00 
  40732e:	66 0f 3a 0f c8 09    	palignr $0x9,%xmm0,%xmm1
  407334:	e9 94 00 00 00       	jmpq   4073cd <__intel_sse4_atol+0x20d>
  407339:	f3 0f 1e fa          	endbr64 
  40733d:	66 0f 73 d9 06       	psrldq $0x6,%xmm1
  407342:	f3 0f 6f 05 06 a4 01 	movdqu 0x1a406(%rip),%xmm0        # 421750 <__$U1+0x362>
  407349:	00 
  40734a:	66 0f 3a 0f c8 0a    	palignr $0xa,%xmm0,%xmm1
  407350:	eb 7b                	jmp    4073cd <__intel_sse4_atol+0x20d>
  407352:	f3 0f 1e fa          	endbr64 
  407356:	66 0f 73 d9 05       	psrldq $0x5,%xmm1
  40735b:	f3 0f 6f 05 ed a3 01 	movdqu 0x1a3ed(%rip),%xmm0        # 421750 <__$U1+0x362>
  407362:	00 
  407363:	66 0f 3a 0f c8 0b    	palignr $0xb,%xmm0,%xmm1
  407369:	eb 62                	jmp    4073cd <__intel_sse4_atol+0x20d>
  40736b:	f3 0f 1e fa          	endbr64 
  40736f:	66 0f 73 d9 04       	psrldq $0x4,%xmm1
  407374:	f3 0f 6f 05 d4 a3 01 	movdqu 0x1a3d4(%rip),%xmm0        # 421750 <__$U1+0x362>
  40737b:	00 
  40737c:	66 0f 3a 0f c8 0c    	palignr $0xc,%xmm0,%xmm1
  407382:	eb 49                	jmp    4073cd <__intel_sse4_atol+0x20d>
  407384:	f3 0f 1e fa          	endbr64 
  407388:	66 0f 73 d9 03       	psrldq $0x3,%xmm1
  40738d:	f3 0f 6f 05 bb a3 01 	movdqu 0x1a3bb(%rip),%xmm0        # 421750 <__$U1+0x362>
  407394:	00 
  407395:	66 0f 3a 0f c8 0d    	palignr $0xd,%xmm0,%xmm1
  40739b:	eb 30                	jmp    4073cd <__intel_sse4_atol+0x20d>
  40739d:	f3 0f 1e fa          	endbr64 
  4073a1:	66 0f 73 d9 02       	psrldq $0x2,%xmm1
  4073a6:	f3 0f 6f 05 a2 a3 01 	movdqu 0x1a3a2(%rip),%xmm0        # 421750 <__$U1+0x362>
  4073ad:	00 
  4073ae:	66 0f 3a 0f c8 0e    	palignr $0xe,%xmm0,%xmm1
  4073b4:	eb 17                	jmp    4073cd <__intel_sse4_atol+0x20d>
  4073b6:	f3 0f 1e fa          	endbr64 
  4073ba:	66 0f 73 d9 01       	psrldq $0x1,%xmm1
  4073bf:	f3 0f 6f 05 89 a3 01 	movdqu 0x1a389(%rip),%xmm0        # 421750 <__$U1+0x362>
  4073c6:	00 
  4073c7:	66 0f 3a 0f c8 0f    	palignr $0xf,%xmm0,%xmm1
  4073cd:	f3 0f 1e fa          	endbr64 
  4073d1:	48 8d 15 08 a5 01 00 	lea    0x1a508(%rip),%rdx        # 4218e0 <__libirc_spaces_vec>
  4073d8:	f3 0f 6f 02          	movdqu (%rdx),%xmm0
  4073dc:	eb 09                	jmp    4073e7 <__intel_sse4_atol+0x227>
  4073de:	49 83 c0 10          	add    $0x10,%r8
  4073e2:	f3 41 0f 6f 08       	movdqu (%r8),%xmm1
  4073e7:	66 0f 3a 63 c1 12    	pcmpistri $0x12,%xmm1,%xmm0
  4073ed:	73 ef                	jae    4073de <__intel_sse4_atol+0x21e>
  4073ef:	66 0f 3a 63 c1 12    	pcmpistri $0x12,%xmm1,%xmm0
  4073f5:	41 89 cb             	mov    %ecx,%r11d
  4073f8:	4f 8d 14 18          	lea    (%r8,%r11,1),%r10
  4073fc:	41 8a 12             	mov    (%r10),%dl
  4073ff:	80 fa 2b             	cmp    $0x2b,%dl
  407402:	0f 84 85 04 00 00    	je     40788d <__intel_sse4_atol+0x6cd>
  407408:	80 fa 2d             	cmp    $0x2d,%dl
  40740b:	75 0c                	jne    407419 <__intel_sse4_atol+0x259>
  40740d:	49 ff c3             	inc    %r11
  407410:	bd 01 00 00 00       	mov    $0x1,%ebp
  407415:	4f 8d 14 18          	lea    (%r8,%r11,1),%r10
  407419:	4d 89 d9             	mov    %r11,%r9
  40741c:	49 83 e1 0f          	and    $0xf,%r9
  407420:	66 0f 3a 63 c1 12    	pcmpistri $0x12,%xmm1,%xmm0
  407426:	74 0b                	je     407433 <__intel_sse4_atol+0x273>
  407428:	f3 43 0f 6f 0c 03    	movdqu (%r11,%r8,1),%xmm1
  40742e:	e9 80 00 00 00       	jmpq   4074b3 <__intel_sse4_atol+0x2f3>
  407433:	48 8d 15 f6 a2 01 00 	lea    0x1a2f6(%rip),%rdx        # 421730 <__$U1+0x342>
  40743a:	42 0f b6 14 0a       	movzbl (%rdx,%r9,1),%edx
  40743f:	48 8d 05 06 00 00 00 	lea    0x6(%rip),%rax        # 40744c <__intel_sse4_atol+0x28c>
  407446:	48 03 c2             	add    %rdx,%rax
  407449:	3e ff e0             	notrack jmpq *%rax
  40744c:	66 0f 73 d9 0f       	psrldq $0xf,%xmm1
  407451:	eb 60                	jmp    4074b3 <__intel_sse4_atol+0x2f3>
  407453:	66 0f 73 d9 0e       	psrldq $0xe,%xmm1
  407458:	eb 59                	jmp    4074b3 <__intel_sse4_atol+0x2f3>
  40745a:	66 0f 73 d9 0d       	psrldq $0xd,%xmm1
  40745f:	eb 52                	jmp    4074b3 <__intel_sse4_atol+0x2f3>
  407461:	66 0f 73 d9 0c       	psrldq $0xc,%xmm1
  407466:	eb 4b                	jmp    4074b3 <__intel_sse4_atol+0x2f3>
  407468:	66 0f 73 d9 0b       	psrldq $0xb,%xmm1
  40746d:	eb 44                	jmp    4074b3 <__intel_sse4_atol+0x2f3>
  40746f:	66 0f 73 d9 0a       	psrldq $0xa,%xmm1
  407474:	eb 3d                	jmp    4074b3 <__intel_sse4_atol+0x2f3>
  407476:	66 0f 73 d9 09       	psrldq $0x9,%xmm1
  40747b:	eb 36                	jmp    4074b3 <__intel_sse4_atol+0x2f3>
  40747d:	66 0f 73 d9 08       	psrldq $0x8,%xmm1
  407482:	eb 2f                	jmp    4074b3 <__intel_sse4_atol+0x2f3>
  407484:	66 0f 73 d9 07       	psrldq $0x7,%xmm1
  407489:	eb 28                	jmp    4074b3 <__intel_sse4_atol+0x2f3>
  40748b:	66 0f 73 d9 06       	psrldq $0x6,%xmm1
  407490:	eb 21                	jmp    4074b3 <__intel_sse4_atol+0x2f3>
  407492:	66 0f 73 d9 05       	psrldq $0x5,%xmm1
  407497:	eb 1a                	jmp    4074b3 <__intel_sse4_atol+0x2f3>
  407499:	66 0f 73 d9 04       	psrldq $0x4,%xmm1
  40749e:	eb 13                	jmp    4074b3 <__intel_sse4_atol+0x2f3>
  4074a0:	66 0f 73 d9 03       	psrldq $0x3,%xmm1
  4074a5:	eb 0c                	jmp    4074b3 <__intel_sse4_atol+0x2f3>
  4074a7:	66 0f 73 d9 02       	psrldq $0x2,%xmm1
  4074ac:	eb 05                	jmp    4074b3 <__intel_sse4_atol+0x2f3>
  4074ae:	66 0f 73 d9 01       	psrldq $0x1,%xmm1
  4074b3:	48 8d 15 36 a4 01 00 	lea    0x1a436(%rip),%rdx        # 4218f0 <__libirc_dig_range_vec>
  4074ba:	f3 0f 6f 12          	movdqu (%rdx),%xmm2
  4074be:	66 0f 3a 62 d1 46    	pcmpistrm $0x46,%xmm1,%xmm2
  4074c4:	66 44 0f d7 c0       	pmovmskb %xmm0,%r8d
  4074c9:	44 89 c1             	mov    %r8d,%ecx
  4074cc:	f7 d1                	not    %ecx
  4074ce:	ff c9                	dec    %ecx
  4074d0:	44 23 c1             	and    %ecx,%r8d
  4074d3:	0f 84 83 01 00 00    	je     40765c <__intel_sse4_atol+0x49c>
  4074d9:	48 8d 15 20 a4 01 00 	lea    0x1a420(%rip),%rdx        # 421900 <__libirc_zero_vec>
  4074e0:	66 0f db c8          	pand   %xmm0,%xmm1
  4074e4:	49 0f bf c8          	movswq %r8w,%rcx
  4074e8:	f3 0f 6f 1a          	movdqu (%rdx),%xmm3
  4074ec:	66 0f db c3          	pand   %xmm3,%xmm0
  4074f0:	66 0f f8 c8          	psubb  %xmm0,%xmm1
  4074f4:	85 c9                	test   %ecx,%ecx
  4074f6:	0f 8e ac 01 00 00    	jle    4076a8 <__intel_sse4_atol+0x4e8>
  4074fc:	45 0f bd c0          	bsr    %r8d,%r8d
  407500:	48 8d 15 09 a4 01 00 	lea    0x1a409(%rip),%rdx        # 421910 <__libirc_byte_factor_64>
  407507:	48 8d 0d 12 a4 01 00 	lea    0x1a412(%rip),%rcx        # 421920 <__libirc_word_factor_64>
  40750e:	4c 8d 0d 1b a4 01 00 	lea    0x1a41b(%rip),%r9        # 421930 <__libirc_dword_factor_64>
  407515:	66 0f 38 04 0a       	pmaddubsw (%rdx),%xmm1
  40751a:	66 0f f5 09          	pmaddwd (%rcx),%xmm1
  40751e:	4d 63 c0             	movslq %r8d,%r8
  407521:	66 41 0f 38 40 09    	pmulld (%r9),%xmm1
  407527:	66 0f 38 02 c9       	phaddd %xmm1,%xmm1
  40752c:	49 83 f8 08          	cmp    $0x8,%r8
  407530:	73 0b                	jae    40753d <__intel_sse4_atol+0x37d>
  407532:	66 0f 3a 16 c9 00    	pextrd $0x0,%xmm1,%ecx
  407538:	48 63 c9             	movslq %ecx,%rcx
  40753b:	eb 26                	jmp    407563 <__intel_sse4_atol+0x3a3>
  40753d:	48 8d 0d fc a3 01 00 	lea    0x1a3fc(%rip),%rcx        # 421940 <__libirc_qword_factor_64>
  407544:	66 0f 62 c9          	punpckldq %xmm1,%xmm1
  407548:	66 0f 38 28 09       	pmuldq (%rcx),%xmm1
  40754d:	66 48 0f 3a 16 c9 00 	pextrq $0x0,%xmm1,%rcx
  407554:	66 48 0f 3a 16 ca 01 	pextrq $0x1,%xmm1,%rdx
  40755b:	48 03 ca             	add    %rdx,%rcx
  40755e:	40 84 ff             	test   %dil,%dil
